Component: ARM Compiler 5.06 update 6 (build 750) Tool: armlink [4d35ed]

==============================================================================

Section Cross References

    main.o(i.main) refers to app.o(i.app_init) for app_init
    main.o(i.main) refers to thread.o(i.rt_thread_delay) for rt_thread_delay
    app.o(i.app_init) refers to stm32f10x_rcc.o(i.RCC_APB2PeriphClockCmd) for RCC_APB2PeriphClockCmd
    app.o(i.app_init) refers to soft_i2c.o(i.I2C_BusInitialize) for I2C_BusInitialize
    app.o(i.app_init) refers to bq769.o(i.BQ769X0_Initialize) for BQ769X0_Initialize
    app.o(i.app_init) refers to bms_monitor.o(i.BMS_MonitorInit) for BMS_MonitorInit
    app.o(i.led_gpio_init) refers to stm32f10x_rcc.o(i.RCC_APB2PeriphClockCmd) for RCC_APB2PeriphClockCmd
    app.o(i.led_gpio_init) refers to stm32f10x_gpio.o(i.GPIO_SetBits) for GPIO_SetBits
    app.o(i.led_gpio_init) refers to stm32f10x_gpio.o(i.GPIO_Init) for GPIO_Init
    app.o(i.led_init) refers to app.o(i.led_gpio_init) for led_gpio_init
    app.o(i.led_init) refers to thread.o(i.rt_thread_create) for rt_thread_create
    app.o(i.led_init) refers to thread.o(i.rt_thread_startup) for rt_thread_startup
    app.o(i.led_init) refers to app.o(i.led_task) for led_task
    app.o(i.led_init) refers to app.o(.data) for led_thread
    app.o(i.led_task) refers to app.o(i.led_toggle) for led_toggle
    app.o(i.led_task) refers to thread.o(i.rt_thread_delay) for rt_thread_delay
    app.o(i.led_task) refers to app.o(.data) for led_time
    app.o(i.shell_test) refers to atoi.o(.text) for atoi
    app.o(i.shell_test) refers to app.o(.data) for led_time
    app.o(FSymTab) refers to app.o(.rodata.name) for __fsym_shell_test_name
    app.o(FSymTab) refers to app.o(i.shell_test) for shell_test
    board.o(i.rt_heap_begin_get) refers to board.o(.bss) for rt_heap
    board.o(i.rt_heap_end_get) refers to board.o(.bss) for rt_heap
    board.o(i.rt_hw_board_init) refers to delay.o(i.tim_tick_init) for tim_tick_init
    board.o(i.rt_hw_board_init) refers to components.o(i.rt_components_board_init) for rt_components_board_init
    board.o(i.rt_hw_board_init) refers to board.o(i.rt_heap_end_get) for rt_heap_end_get
    board.o(i.rt_hw_board_init) refers to board.o(i.rt_heap_begin_get) for rt_heap_begin_get
    board.o(i.rt_hw_board_init) refers to kservice.o(i.rt_system_heap_init) for rt_system_heap_init
    board.o(i.rt_hw_console_getchar) refers to ipc.o(i.rt_sem_take) for rt_sem_take
    board.o(i.rt_hw_console_getchar) refers to context_rvds.o(.text) for rt_hw_interrupt_disable
    board.o(i.rt_hw_console_getchar) refers to usart.o(.data) for uart_rx_sem
    board.o(i.rt_hw_console_getchar) refers to usart.o(.bss) for rx_buf
    board.o(i.rt_hw_console_output) refers to stm32f10x_usart.o(i.USART_SendData) for USART_SendData
    board.o(i.rt_hw_console_output) refers to stm32f10x_usart.o(i.USART_GetFlagStatus) for USART_GetFlagStatus
    board.o(i.rt_os_tick_callback) refers to irq.o(i.rt_interrupt_enter) for rt_interrupt_enter
    board.o(i.rt_os_tick_callback) refers to clock.o(i.rt_tick_increase) for rt_tick_increase
    board.o(i.rt_os_tick_callback) refers to irq.o(i.rt_interrupt_leave) for rt_interrupt_leave
    board.o(i.uart_init) refers to usart.o(i.USART1_Init) for USART1_Init
    board.o(.rti_fn.1) refers to board.o(i.uart_init) for uart_init
    delay.o(i.TIM3_IRQHandler) refers to stm32f10x_tim.o(i.TIM_GetITStatus) for TIM_GetITStatus
    delay.o(i.TIM3_IRQHandler) refers to stm32f10x_tim.o(i.TIM_ClearITPendingBit) for TIM_ClearITPendingBit
    delay.o(i.TIM3_IRQHandler) refers to board.o(i.rt_os_tick_callback) for rt_os_tick_callback
    delay.o(i.TIM3_IRQHandler) refers to delay.o(.data) for tim_tick_count
    delay.o(i.function_address_passing) refers to delay.o(.data) for periodic_callback
    delay.o(i.tim_delay_ms) refers to delay.o(i.tim_now) for tim_now
    delay.o(i.tim_delay_us) refers to delay.o(i.tim_now) for tim_now
    delay.o(i.tim_get_ms) refers to delay.o(i.tim_now) for tim_now
    delay.o(i.tim_get_ms) refers to uldiv.o(.text) for __aeabi_uldivmod
    delay.o(i.tim_get_us) refers to delay.o(i.tim_now) for tim_now
    delay.o(i.tim_get_us) refers to uldiv.o(.text) for __aeabi_uldivmod
    delay.o(i.tim_now) refers to stm32f10x_tim.o(i.TIM_GetCounter) for TIM_GetCounter
    delay.o(i.tim_now) refers to stm32f10x_tim.o(i.TIM_GetFlagStatus) for TIM_GetFlagStatus
    delay.o(i.tim_now) refers to delay.o(.data) for tim_tick_count
    delay.o(i.tim_tick_init) refers to stm32f10x_rcc.o(i.RCC_APB1PeriphClockCmd) for RCC_APB1PeriphClockCmd
    delay.o(i.tim_tick_init) refers to stm32f10x_tim.o(i.TIM_TimeBaseInit) for TIM_TimeBaseInit
    delay.o(i.tim_tick_init) refers to stm32f10x_tim.o(i.TIM_ClearFlag) for TIM_ClearFlag
    delay.o(i.tim_tick_init) refers to stm32f10x_tim.o(i.TIM_ITConfig) for TIM_ITConfig
    delay.o(i.tim_tick_init) refers to misc.o(i.NVIC_PriorityGroupConfig) for NVIC_PriorityGroupConfig
    delay.o(i.tim_tick_init) refers to misc.o(i.NVIC_Init) for NVIC_Init
    delay.o(i.tim_tick_init) refers to stm32f10x_tim.o(i.TIM_Cmd) for TIM_Cmd
    usart.o(i.USART1_IO_Init) refers to stm32f10x_rcc.o(i.RCC_APB2PeriphClockCmd) for RCC_APB2PeriphClockCmd
    usart.o(i.USART1_IO_Init) refers to stm32f10x_gpio.o(i.GPIO_SetBits) for GPIO_SetBits
    usart.o(i.USART1_IO_Init) refers to stm32f10x_gpio.o(i.GPIO_Init) for GPIO_Init
    usart.o(i.USART1_IRQHandler) refers to irq.o(i.rt_interrupt_enter) for rt_interrupt_enter
    usart.o(i.USART1_IRQHandler) refers to stm32f10x_usart.o(i.USART_GetITStatus) for USART_GetITStatus
    usart.o(i.USART1_IRQHandler) refers to stm32f10x_usart.o(i.USART_ReceiveData) for USART_ReceiveData
    usart.o(i.USART1_IRQHandler) refers to ipc.o(i.rt_sem_release) for rt_sem_release
    usart.o(i.USART1_IRQHandler) refers to irq.o(i.rt_interrupt_leave) for rt_interrupt_leave
    usart.o(i.USART1_IRQHandler) refers to usart.o(.data) for rx_in
    usart.o(i.USART1_IRQHandler) refers to usart.o(.bss) for rx_buf
    usart.o(i.USART1_Init) refers to usart.o(i.USART1_IO_Init) for USART1_IO_Init
    usart.o(i.USART1_Init) refers to usart.o(i.USART1_func_Init) for USART1_func_Init
    usart.o(i.USART1_Init) refers to ipc.o(i.rt_sem_create) for rt_sem_create
    usart.o(i.USART1_Init) refers to usart.o(.data) for uart_rx_sem
    usart.o(i.USART1_func_Init) refers to stm32f10x_rcc.o(i.RCC_APB2PeriphClockCmd) for RCC_APB2PeriphClockCmd
    usart.o(i.USART1_func_Init) refers to stm32f10x_usart.o(i.USART_Init) for USART_Init
    usart.o(i.USART1_func_Init) refers to misc.o(i.NVIC_PriorityGroupConfig) for NVIC_PriorityGroupConfig
    usart.o(i.USART1_func_Init) refers to misc.o(i.NVIC_Init) for NVIC_Init
    usart.o(i.USART1_func_Init) refers to stm32f10x_usart.o(i.USART_ITConfig) for USART_ITConfig
    usart.o(i.USART1_func_Init) refers to stm32f10x_usart.o(i.USART_Cmd) for USART_Cmd
    usart.o(i.USART_Send_Data) refers to stm32f10x_usart.o(i.USART_GetFlagStatus) for USART_GetFlagStatus
    usart.o(i.USART_Send_Data) refers to stm32f10x_usart.o(i.USART_SendData) for USART_SendData
    usart.o(i.fputc) refers to stm32f10x_usart.o(i.USART_SendData) for USART_SendData
    usart.o(i.fputc) refers to stm32f10x_usart.o(i.USART_GetFlagStatus) for USART_GetFlagStatus
    soft_i2c.o(i.GET_SDA) refers to stm32f10x_gpio.o(i.GPIO_ReadInputDataBit) for GPIO_ReadInputDataBit
    soft_i2c.o(i.I2C1_Lock) refers to context_rvds.o(.text) for rt_hw_interrupt_disable
    soft_i2c.o(i.I2C1_Lock) refers to soft_i2c.o(.data) for level
    soft_i2c.o(i.I2C1_Unlock) refers to context_rvds.o(.text) for rt_hw_interrupt_enable
    soft_i2c.o(i.I2C1_Unlock) refers to soft_i2c.o(.data) for level
    soft_i2c.o(i.I2C_BitSendAddress) refers to soft_i2c.o(i.I2C_SendAddress) for I2C_SendAddress
    soft_i2c.o(i.I2C_BitSendAddress) refers to soft_i2c.o(i.I2C_WriteByte) for I2C_WriteByte
    soft_i2c.o(i.I2C_BitSendAddress) refers to soft_i2c.o(i.I2C_Restart) for I2C_Restart
    soft_i2c.o(i.I2C_BitSendAddress) refers to kservice.o(i.rt_kprintf) for rt_kprintf
    soft_i2c.o(i.I2C_BusHardwareInitialize) refers to stm32f10x_gpio.o(i.GPIO_Init) for GPIO_Init
    soft_i2c.o(i.I2C_BusHardwareInitialize) refers to stm32f10x_gpio.o(i.GPIO_WriteBit) for GPIO_WriteBit
    soft_i2c.o(i.I2C_BusInitialize) refers to soft_i2c.o(i.I2C_BusHardwareInitialize) for I2C_BusHardwareInitialize
    soft_i2c.o(i.I2C_BusInitialize) refers to soft_i2c.o(.data) for i2c1
    soft_i2c.o(i.I2C_ReadByte) refers to soft_i2c.o(i.SDA_H) for SDA_H
    soft_i2c.o(i.I2C_ReadByte) refers to soft_i2c.o(i.SDA_SetInMode) for SDA_SetInMode
    soft_i2c.o(i.I2C_ReadByte) refers to soft_i2c.o(i.SCL_H) for SCL_H
    soft_i2c.o(i.I2C_ReadByte) refers to soft_i2c.o(i.GET_SDA) for GET_SDA
    soft_i2c.o(i.I2C_ReadByte) refers to soft_i2c.o(i.SCL_L) for SCL_L
    soft_i2c.o(i.I2C_ReadByte) refers to soft_i2c.o(i.SDA_SetOutMode) for SDA_SetOutMode
    soft_i2c.o(i.I2C_RecvBytes) refers to soft_i2c.o(i.I2C_ReadByte) for I2C_ReadByte
    soft_i2c.o(i.I2C_RecvBytes) refers to soft_i2c.o(i.SDA_L) for SDA_L
    soft_i2c.o(i.I2C_RecvBytes) refers to soft_i2c.o(i.SCL_H) for SCL_H
    soft_i2c.o(i.I2C_RecvBytes) refers to soft_i2c.o(i.SCL_L) for SCL_L
    soft_i2c.o(i.I2C_Restart) refers to soft_i2c.o(i.SDA_H) for SDA_H
    soft_i2c.o(i.I2C_Restart) refers to soft_i2c.o(i.SCL_H) for SCL_H
    soft_i2c.o(i.I2C_Restart) refers to soft_i2c.o(i.SDA_L) for SDA_L
    soft_i2c.o(i.I2C_Restart) refers to soft_i2c.o(i.SCL_L) for SCL_L
    soft_i2c.o(i.I2C_SendAddress) refers to soft_i2c.o(i.I2C_WriteByte) for I2C_WriteByte
    soft_i2c.o(i.I2C_SendAddress) refers to soft_i2c.o(i.I2C_Stop) for I2C_Stop
    soft_i2c.o(i.I2C_SendAddress) refers to soft_i2c.o(i.I2C_Start) for I2C_Start
    soft_i2c.o(i.I2C_SendBytes) refers to soft_i2c.o(i.I2C_WriteByte) for I2C_WriteByte
    soft_i2c.o(i.I2C_Start) refers to soft_i2c.o(i.SDA_L) for SDA_L
    soft_i2c.o(i.I2C_Start) refers to soft_i2c.o(i.SCL_L) for SCL_L
    soft_i2c.o(i.I2C_Stop) refers to soft_i2c.o(i.SDA_L) for SDA_L
    soft_i2c.o(i.I2C_Stop) refers to soft_i2c.o(i.SCL_H) for SCL_H
    soft_i2c.o(i.I2C_Stop) refers to soft_i2c.o(i.SDA_H) for SDA_H
    soft_i2c.o(i.I2C_TransferMessages) refers to soft_i2c.o(i.I2C_Restart) for I2C_Restart
    soft_i2c.o(i.I2C_TransferMessages) refers to soft_i2c.o(i.I2C_Start) for I2C_Start
    soft_i2c.o(i.I2C_TransferMessages) refers to soft_i2c.o(i.I2C_BitSendAddress) for I2C_BitSendAddress
    soft_i2c.o(i.I2C_TransferMessages) refers to soft_i2c.o(i.I2C_RecvBytes) for I2C_RecvBytes
    soft_i2c.o(i.I2C_TransferMessages) refers to soft_i2c.o(i.I2C_SendBytes) for I2C_SendBytes
    soft_i2c.o(i.I2C_TransferMessages) refers to soft_i2c.o(i.I2C_Stop) for I2C_Stop
    soft_i2c.o(i.I2C_WriteByte) refers to soft_i2c.o(i.SCL_L) for SCL_L
    soft_i2c.o(i.I2C_WriteByte) refers to soft_i2c.o(i.SDA_H) for SDA_H
    soft_i2c.o(i.I2C_WriteByte) refers to soft_i2c.o(i.SDA_L) for SDA_L
    soft_i2c.o(i.I2C_WriteByte) refers to soft_i2c.o(i.SCL_H) for SCL_H
    soft_i2c.o(i.I2C_WriteByte) refers to soft_i2c.o(i.SDA_SetInMode) for SDA_SetInMode
    soft_i2c.o(i.I2C_WriteByte) refers to soft_i2c.o(i.GET_SDA) for GET_SDA
    soft_i2c.o(i.I2C_WriteByte) refers to soft_i2c.o(i.SDA_SetOutMode) for SDA_SetOutMode
    soft_i2c.o(i.SCL_H) refers to stm32f10x_gpio.o(i.GPIO_WriteBit) for GPIO_WriteBit
    soft_i2c.o(i.SCL_L) refers to stm32f10x_gpio.o(i.GPIO_WriteBit) for GPIO_WriteBit
    soft_i2c.o(i.SDA_H) refers to stm32f10x_gpio.o(i.GPIO_WriteBit) for GPIO_WriteBit
    soft_i2c.o(i.SDA_L) refers to stm32f10x_gpio.o(i.GPIO_WriteBit) for GPIO_WriteBit
    soft_i2c.o(i.SDA_SetInMode) refers to stm32f10x_gpio.o(i.GPIO_Init) for GPIO_Init
    soft_i2c.o(i.SDA_SetOutMode) refers to stm32f10x_gpio.o(i.GPIO_Init) for GPIO_Init
    soft_i2c.o(.data) refers to soft_i2c.o(i.delay_us) for delay_us
    soft_i2c.o(.data) refers to soft_i2c.o(i.I2C1_LockInit) for I2C1_LockInit
    soft_i2c.o(.data) refers to soft_i2c.o(i.I2C1_Lock) for I2C1_Lock
    soft_i2c.o(.data) refers to soft_i2c.o(i.I2C1_Unlock) for I2C1_Unlock
    bq769.o(i.BQ769X0_AlertyHandler) refers to bq769.o(i.BQ769X0_ReadRegisterByteWithCRC) for BQ769X0_ReadRegisterByteWithCRC
    bq769.o(i.BQ769X0_AlertyHandler) refers to bq769.o(i.BQ769X0_WriteRegisterByteWithCRC) for BQ769X0_WriteRegisterByteWithCRC
    bq769.o(i.BQ769X0_AlertyHandler) refers to bq769.o(.bss) for AlertOps
    bq769.o(i.BQ769X0_CellBalanceControl) refers to bq769.o(i.BQ769X0_WriteBlockWithCRC) for BQ769X0_WriteBlockWithCRC
    bq769.o(i.BQ769X0_CellBalanceControl) refers to bq769.o(.data) for CELL_BAL_VALUE
    bq769.o(i.BQ769X0_Configuration) refers to bq769.o(i.BQ769X0_WriteBlockWithCRC) for BQ769X0_WriteBlockWithCRC
    bq769.o(i.BQ769X0_Configuration) refers to bq769.o(i.BQ769X0_ReadBlockWithCRC) for BQ769X0_ReadBlockWithCRC
    bq769.o(i.BQ769X0_Configuration) refers to bq769.o(.bss) for Registers
    bq769.o(i.BQ769X0_ControlDSGOrCHG) refers to bq769.o(i.BQ769X0_WriteRegisterByteWithCRC) for BQ769X0_WriteRegisterByteWithCRC
    bq769.o(i.BQ769X0_ControlDSGOrCHG) refers to bq769.o(.bss) for Registers
    bq769.o(i.BQ769X0_EntryShip) refers to bq769.o(i.BQ769X0_WriteRegisterByteWithCRC) for BQ769X0_WriteRegisterByteWithCRC
    bq769.o(i.BQ769X0_GetADCGainOffset) refers to bq769.o(i.BQ769X0_ReadRegisterByteWithCRC) for BQ769X0_ReadRegisterByteWithCRC
    bq769.o(i.BQ769X0_GetADCGainOffset) refers to dflti.o(.text) for __aeabi_i2d
    bq769.o(i.BQ769X0_GetADCGainOffset) refers to ddiv.o(.text) for __aeabi_ddiv
    bq769.o(i.BQ769X0_GetADCGainOffset) refers to d2f.o(.text) for __aeabi_d2f
    bq769.o(i.BQ769X0_GetADCGainOffset) refers to bq769.o(.bss) for Registers
    bq769.o(i.BQ769X0_GetADCGainOffset) refers to bq769.o(.data) for Gain
    bq769.o(i.BQ769X0_Initialize) refers to bq769.o(i.BQ769X0_EntryShip) for BQ769X0_EntryShip
    bq769.o(i.BQ769X0_Initialize) refers to thread.o(i.rt_thread_mdelay) for rt_thread_mdelay
    bq769.o(i.BQ769X0_Initialize) refers to bq769.o(i.BQ769X0_Wakeup) for BQ769X0_Wakeup
    bq769.o(i.BQ769X0_Initialize) refers to bq769.o(i.BQ769X0_GetADCGainOffset) for BQ769X0_GetADCGainOffset
    bq769.o(i.BQ769X0_Initialize) refers to memcpya.o(.text) for __aeabi_memcpy4
    bq769.o(i.BQ769X0_Initialize) refers to fflti.o(.text) for __aeabi_i2f
    bq769.o(i.BQ769X0_Initialize) refers to fdiv.o(.text) for __aeabi_fdiv
    bq769.o(i.BQ769X0_Initialize) refers to ffixui.o(.text) for __aeabi_f2uiz
    bq769.o(i.BQ769X0_Initialize) refers to bq769.o(i.BQ769X0_Configuration) for BQ769X0_Configuration
    bq769.o(i.BQ769X0_Initialize) refers to bq769.o(.bss) for AlertOps
    bq769.o(i.BQ769X0_Initialize) refers to bq769.o(.data) for Adcoffset
    bq769.o(i.BQ769X0_LoadDetect) refers to bq769.o(i.BQ769X0_ReadRegisterWordWithCRC) for BQ769X0_ReadRegisterWordWithCRC
    bq769.o(i.BQ769X0_LoadDetect) refers to bq769.o(.bss) for Registers
    bq769.o(i.BQ769X0_OCDDelaySet) refers to bq769.o(i.BQ769X0_WriteRegisterByteWithCRC) for BQ769X0_WriteRegisterByteWithCRC
    bq769.o(i.BQ769X0_OCDDelaySet) refers to bq769.o(.bss) for Registers
    bq769.o(i.BQ769X0_OVDelaySet) refers to bq769.o(i.BQ769X0_WriteRegisterByteWithCRC) for BQ769X0_WriteRegisterByteWithCRC
    bq769.o(i.BQ769X0_OVDelaySet) refers to bq769.o(.bss) for Registers
    bq769.o(i.BQ769X0_OVPThresholdSet) refers to fflti.o(.text) for __aeabi_i2f
    bq769.o(i.BQ769X0_OVPThresholdSet) refers to fdiv.o(.text) for __aeabi_fdiv
    bq769.o(i.BQ769X0_OVPThresholdSet) refers to ffixui.o(.text) for __aeabi_f2uiz
    bq769.o(i.BQ769X0_OVPThresholdSet) refers to bq769.o(i.BQ769X0_WriteRegisterByteWithCRC) for BQ769X0_WriteRegisterByteWithCRC
    bq769.o(i.BQ769X0_OVPThresholdSet) refers to bq769.o(.data) for Adcoffset
    bq769.o(i.BQ769X0_OVPThresholdSet) refers to bq769.o(.bss) for Registers
    bq769.o(i.BQ769X0_ReadBlockWithCRC) refers to memseta.o(.text) for __aeabi_memclr4
    bq769.o(i.BQ769X0_ReadBlockWithCRC) refers to soft_i2c.o(i.I2C_TransferMessages) for I2C_TransferMessages
    bq769.o(i.BQ769X0_ReadBlockWithCRC) refers to bq769.o(i.CRC8) for CRC8
    bq769.o(i.BQ769X0_ReadBlockWithCRC) refers to soft_i2c.o(.data) for i2c1
    bq769.o(i.BQ769X0_ReadRegisterByte) refers to memseta.o(.text) for __aeabi_memclr4
    bq769.o(i.BQ769X0_ReadRegisterByte) refers to soft_i2c.o(i.I2C_TransferMessages) for I2C_TransferMessages
    bq769.o(i.BQ769X0_ReadRegisterByte) refers to soft_i2c.o(.data) for i2c1
    bq769.o(i.BQ769X0_ReadRegisterByteWithCRC) refers to memseta.o(.text) for __aeabi_memclr4
    bq769.o(i.BQ769X0_ReadRegisterByteWithCRC) refers to soft_i2c.o(i.I2C_TransferMessages) for I2C_TransferMessages
    bq769.o(i.BQ769X0_ReadRegisterByteWithCRC) refers to bq769.o(i.CRC8) for CRC8
    bq769.o(i.BQ769X0_ReadRegisterByteWithCRC) refers to soft_i2c.o(.data) for i2c1
    bq769.o(i.BQ769X0_ReadRegisterWordWithCRC) refers to memseta.o(.text) for __aeabi_memclr4
    bq769.o(i.BQ769X0_ReadRegisterWordWithCRC) refers to soft_i2c.o(i.I2C_TransferMessages) for I2C_TransferMessages
    bq769.o(i.BQ769X0_ReadRegisterWordWithCRC) refers to bq769.o(i.CRC8) for CRC8
    bq769.o(i.BQ769X0_ReadRegisterWordWithCRC) refers to kservice.o(i.rt_kprintf) for rt_kprintf
    bq769.o(i.BQ769X0_ReadRegisterWordWithCRC) refers to soft_i2c.o(.data) for i2c1
    bq769.o(i.BQ769X0_SCDDelaySet) refers to bq769.o(i.BQ769X0_WriteRegisterByteWithCRC) for BQ769X0_WriteRegisterByteWithCRC
    bq769.o(i.BQ769X0_SCDDelaySet) refers to bq769.o(.bss) for Registers
    bq769.o(i.BQ769X0_TS1_SetInMode) refers to stm32f10x_gpio.o(i.GPIO_Init) for GPIO_Init
    bq769.o(i.BQ769X0_TS1_SetOutMode) refers to stm32f10x_gpio.o(i.GPIO_Init) for GPIO_Init
    bq769.o(i.BQ769X0_UVDelaySet) refers to bq769.o(i.BQ769X0_WriteRegisterByteWithCRC) for BQ769X0_WriteRegisterByteWithCRC
    bq769.o(i.BQ769X0_UVDelaySet) refers to bq769.o(.bss) for Registers
    bq769.o(i.BQ769X0_UVPThresholdSet) refers to fflti.o(.text) for __aeabi_i2f
    bq769.o(i.BQ769X0_UVPThresholdSet) refers to fdiv.o(.text) for __aeabi_fdiv
    bq769.o(i.BQ769X0_UVPThresholdSet) refers to ffixui.o(.text) for __aeabi_f2uiz
    bq769.o(i.BQ769X0_UVPThresholdSet) refers to bq769.o(i.BQ769X0_WriteRegisterByteWithCRC) for BQ769X0_WriteRegisterByteWithCRC
    bq769.o(i.BQ769X0_UVPThresholdSet) refers to bq769.o(.data) for Adcoffset
    bq769.o(i.BQ769X0_UVPThresholdSet) refers to bq769.o(.bss) for Registers
    bq769.o(i.BQ769X0_UpdateBatVolt) refers to bq769.o(i.BQ769X0_ReadRegisterWordWithCRC) for BQ769X0_ReadRegisterWordWithCRC
    bq769.o(i.BQ769X0_UpdateBatVolt) refers to ffltui.o(.text) for __aeabi_ui2f
    bq769.o(i.BQ769X0_UpdateBatVolt) refers to fmul.o(.text) for __aeabi_fmul
    bq769.o(i.BQ769X0_UpdateBatVolt) refers to fflti.o(.text) for __aeabi_i2f
    bq769.o(i.BQ769X0_UpdateBatVolt) refers to fadd.o(.text) for __aeabi_fadd
    bq769.o(i.BQ769X0_UpdateBatVolt) refers to fdiv.o(.text) for __aeabi_fdiv
    bq769.o(i.BQ769X0_UpdateBatVolt) refers to bq769.o(.bss) for Registers
    bq769.o(i.BQ769X0_UpdateBatVolt) refers to bq769.o(.data) for Gain
    bq769.o(i.BQ769X0_UpdateCellVolt) refers to bq769.o(i.BQ769X0_ReadBlockWithCRC) for BQ769X0_ReadBlockWithCRC
    bq769.o(i.BQ769X0_UpdateCellVolt) refers to dfltui.o(.text) for __aeabi_ui2d
    bq769.o(i.BQ769X0_UpdateCellVolt) refers to ddiv.o(.text) for __aeabi_ddiv
    bq769.o(i.BQ769X0_UpdateCellVolt) refers to d2f.o(.text) for __aeabi_d2f
    bq769.o(i.BQ769X0_UpdateCellVolt) refers to bq769.o(.bss) for Registers
    bq769.o(i.BQ769X0_UpdateCellVolt) refers to bq769.o(.data) for iGain
    bq769.o(i.BQ769X0_UpdateCurrent) refers to bq769.o(i.BQ769X0_ReadRegisterWordWithCRC) for BQ769X0_ReadRegisterWordWithCRC
    bq769.o(i.BQ769X0_UpdateCurrent) refers to f2d.o(.text) for __aeabi_f2d
    bq769.o(i.BQ769X0_UpdateCurrent) refers to dflti.o(.text) for __aeabi_i2d
    bq769.o(i.BQ769X0_UpdateCurrent) refers to dmul.o(.text) for __aeabi_dmul
    bq769.o(i.BQ769X0_UpdateCurrent) refers to ddiv.o(.text) for __aeabi_ddiv
    bq769.o(i.BQ769X0_UpdateCurrent) refers to d2f.o(.text) for __aeabi_d2f
    bq769.o(i.BQ769X0_UpdateCurrent) refers to bq769.o(.bss) for Registers
    bq769.o(i.BQ769X0_UpdateCurrent) refers to bq769.o(.data) for RsnsValue
    bq769.o(i.BQ769X0_UpdateDieTemp) refers to bq769.o(i.BQ769X0_WriteRegisterByteWithCRC) for BQ769X0_WriteRegisterByteWithCRC
    bq769.o(i.BQ769X0_UpdateDieTemp) refers to thread.o(i.rt_thread_mdelay) for rt_thread_mdelay
    bq769.o(i.BQ769X0_UpdateDieTemp) refers to bq769.o(i.BQ769X0_ReadRegisterWordWithCRC) for BQ769X0_ReadRegisterWordWithCRC
    bq769.o(i.BQ769X0_UpdateDieTemp) refers to dfltui.o(.text) for __aeabi_ui2d
    bq769.o(i.BQ769X0_UpdateDieTemp) refers to dmul.o(.text) for __aeabi_dmul
    bq769.o(i.BQ769X0_UpdateDieTemp) refers to ddiv.o(.text) for __aeabi_ddiv
    bq769.o(i.BQ769X0_UpdateDieTemp) refers to d2f.o(.text) for __aeabi_d2f
    bq769.o(i.BQ769X0_UpdateDieTemp) refers to f2d.o(.text) for __aeabi_f2d
    bq769.o(i.BQ769X0_UpdateDieTemp) refers to dadd.o(.text) for __aeabi_dsub
    bq769.o(i.BQ769X0_UpdateDieTemp) refers to bq769.o(.data) for TempSampleMode
    bq769.o(i.BQ769X0_UpdateDieTemp) refers to bq769.o(.bss) for Registers
    bq769.o(i.BQ769X0_UpdateTsTemp) refers to bq769.o(i.BQ769X0_WriteRegisterByteWithCRC) for BQ769X0_WriteRegisterByteWithCRC
    bq769.o(i.BQ769X0_UpdateTsTemp) refers to thread.o(i.rt_thread_mdelay) for rt_thread_mdelay
    bq769.o(i.BQ769X0_UpdateTsTemp) refers to bq769.o(i.BQ769X0_ReadBlockWithCRC) for BQ769X0_ReadBlockWithCRC
    bq769.o(i.BQ769X0_UpdateTsTemp) refers to dfltui.o(.text) for __aeabi_ui2d
    bq769.o(i.BQ769X0_UpdateTsTemp) refers to dmul.o(.text) for __aeabi_dmul
    bq769.o(i.BQ769X0_UpdateTsTemp) refers to d2f.o(.text) for __aeabi_d2f
    bq769.o(i.BQ769X0_UpdateTsTemp) refers to f2d.o(.text) for __aeabi_f2d
    bq769.o(i.BQ769X0_UpdateTsTemp) refers to dadd.o(.text) for __aeabi_drsub
    bq769.o(i.BQ769X0_UpdateTsTemp) refers to fmul.o(.text) for __aeabi_fmul
    bq769.o(i.BQ769X0_UpdateTsTemp) refers to ddiv.o(.text) for __aeabi_ddiv
    bq769.o(i.BQ769X0_UpdateTsTemp) refers to bq769.o(i.TempChange) for TempChange
    bq769.o(i.BQ769X0_UpdateTsTemp) refers to bq769.o(.data) for TempSampleMode
    bq769.o(i.BQ769X0_UpdateTsTemp) refers to bq769.o(.bss) for Registers
    bq769.o(i.BQ769X0_Wakeup) refers to bq769.o(i.BQ769X0_TS1_SetOutMode) for BQ769X0_TS1_SetOutMode
    bq769.o(i.BQ769X0_Wakeup) refers to stm32f10x_gpio.o(i.GPIO_WriteBit) for GPIO_WriteBit
    bq769.o(i.BQ769X0_Wakeup) refers to thread.o(i.rt_thread_mdelay) for rt_thread_mdelay
    bq769.o(i.BQ769X0_Wakeup) refers to bq769.o(i.BQ769X0_TS1_SetInMode) for BQ769X0_TS1_SetInMode
    bq769.o(i.BQ769X0_WriteBlockWithCRC) refers to memseta.o(.text) for __aeabi_memclr4
    bq769.o(i.BQ769X0_WriteBlockWithCRC) refers to bq769.o(i.CRC8) for CRC8
    bq769.o(i.BQ769X0_WriteBlockWithCRC) refers to soft_i2c.o(i.I2C_TransferMessages) for I2C_TransferMessages
    bq769.o(i.BQ769X0_WriteBlockWithCRC) refers to soft_i2c.o(.data) for i2c1
    bq769.o(i.BQ769X0_WriteRegisterByte) refers to soft_i2c.o(i.I2C_TransferMessages) for I2C_TransferMessages
    bq769.o(i.BQ769X0_WriteRegisterByte) refers to soft_i2c.o(.data) for i2c1
    bq769.o(i.BQ769X0_WriteRegisterByteWithCRC) refers to bq769.o(i.CRC8) for CRC8
    bq769.o(i.BQ769X0_WriteRegisterByteWithCRC) refers to soft_i2c.o(i.I2C_TransferMessages) for I2C_TransferMessages
    bq769.o(i.BQ769X0_WriteRegisterByteWithCRC) refers to soft_i2c.o(.data) for i2c1
    bq769.o(i.BQ769X0_WriteRegisterWordWithCRC) refers to bq769.o(i.CRC8) for CRC8
    bq769.o(i.BQ769X0_WriteRegisterWordWithCRC) refers to soft_i2c.o(i.I2C_TransferMessages) for I2C_TransferMessages
    bq769.o(i.BQ769X0_WriteRegisterWordWithCRC) refers to soft_i2c.o(.data) for i2c1
    bq769.o(i.EXTI15_10_IRQHandler) refers to stm32f10x_exti.o(i.EXTI_GetITStatus) for EXTI_GetITStatus
    bq769.o(i.EXTI15_10_IRQHandler) refers to bq769.o(i.BQ769X0_AlertyHandler) for BQ769X0_AlertyHandler
    bq769.o(i.EXTI15_10_IRQHandler) refers to stm32f10x_exti.o(i.EXTI_ClearITPendingBit) for EXTI_ClearITPendingBit
    bq769.o(i.TempChange) refers to f2d.o(.text) for __aeabi_f2d
    bq769.o(i.TempChange) refers to fdiv.o(.text) for __aeabi_fdiv
    bq769.o(i.TempChange) refers to log.o(i.log) for log
    bq769.o(i.TempChange) refers to ddiv.o(.text) for __aeabi_ddiv
    bq769.o(i.TempChange) refers to dadd.o(.text) for __aeabi_dadd
    bq769.o(i.TempChange) refers to d2f.o(.text) for __aeabi_d2f
    bms_control.o(i.BMS_HalCtrlCellsBalance) refers to bq769.o(i.BQ769X0_CellBalanceControl) for BQ769X0_CellBalanceControl
    bms_control.o(i.BMS_HalCtrlCharge) refers to bq769.o(i.BQ769X0_ControlDSGOrCHG) for BQ769X0_ControlDSGOrCHG
    bms_control.o(i.BMS_HalCtrlDischarge) refers to bq769.o(i.BQ769X0_ControlDSGOrCHG) for BQ769X0_ControlDSGOrCHG
    bms_control.o(i.BMS_HalCtrlSleep) refers to bq769.o(i.BQ769X0_EntryShip) for BQ769X0_EntryShip
    bms_control.o(i.BMS_HalCtrlWakeup) refers to bq769.o(i.BQ769X0_Wakeup) for BQ769X0_Wakeup
    bms_monitor.o(i.BMS_MonitorBattery) refers to bq769.o(i.BQ769X0_UpdateCellVolt) for BQ769X0_UpdateCellVolt
    bms_monitor.o(i.BMS_MonitorBattery) refers to bq769.o(i.BQ769X0_UpdateBatVolt) for BQ769X0_UpdateBatVolt
    bms_monitor.o(i.BMS_MonitorBattery) refers to bq769.o(i.BQ769X0_UpdateTsTemp) for BQ769X0_UpdateTsTemp
    bms_monitor.o(i.BMS_MonitorBattery) refers to bq769.o(i.BQ769X0_UpdateCurrent) for BQ769X0_UpdateCurrent
    bms_monitor.o(i.BMS_MonitorBattery) refers to bms_monitor.o(.data) for CountVoltage
    bms_monitor.o(i.BMS_MonitorBattery) refers to bq769.o(.bss) for BQ769X0_SampleData
    bms_monitor.o(i.BMS_MonitorBattery) refers to bms_monitor.o(.bss) for BMS_MonitorData
    bms_monitor.o(i.BMS_MonitorInit) refers to thread.o(i.rt_thread_create) for rt_thread_create
    bms_monitor.o(i.BMS_MonitorInit) refers to thread.o(i.rt_thread_startup) for rt_thread_startup
    bms_monitor.o(i.BMS_MonitorInit) refers to bms_monitor.o(i.Bms_MonitorTask) for Bms_MonitorTask
    bms_monitor.o(i.BMS_MonitorStateBatCurrent) refers to bms_monitor.o(.data) for FlagBatCurrent
    bms_monitor.o(i.BMS_MonitorStateCellTemp) refers to bms_monitor.o(.data) for FlagCellTemp
    bms_monitor.o(i.BMS_MonitorStateVoltage) refers to bms_monitor.o(.data) for FlagVoltage
    bms_monitor.o(i.BMS_MonitorSysMode) refers to cfrcmple.o(.text) for __aeabi_cfrcmple
    bms_monitor.o(i.BMS_MonitorSysMode) refers to cfcmple.o(.text) for __aeabi_cfcmple
    bms_monitor.o(i.BMS_MonitorSysMode) refers to bms_monitor.o(.bss) for BMS_MonitorData
    bms_monitor.o(i.BMS_MonitorSysMode) refers to bms_monitor.o(.data) for SysMode
    bms_monitor.o(i.Bms_MonitorTask) refers to bms_monitor.o(i.BMS_MonitorBattery) for BMS_MonitorBattery
    bms_monitor.o(i.Bms_MonitorTask) refers to bms_monitor.o(i.BMS_MonitorSysMode) for BMS_MonitorSysMode
    bms_monitor.o(i.Bms_MonitorTask) refers to thread.o(i.rt_thread_delay) for rt_thread_delay
    bms_monitor.o(i.Bms_MonitorTask) refers to fmul.o(.text) for __aeabi_fmul
    bms_monitor.o(i.Bms_MonitorTask) refers to ffixi.o(.text) for __aeabi_f2iz
    bms_monitor.o(i.Bms_MonitorTask) refers to kservice.o(i.rt_kprintf) for rt_kprintf
    bms_monitor.o(i.Bms_MonitorTask) refers to bms_monitor.o(.bss) for BMS_MonitorData
    stm32f10x_adc.o(i.ADC_DeInit) refers to stm32f10x_rcc.o(i.RCC_APB2PeriphResetCmd) for RCC_APB2PeriphResetCmd
    stm32f10x_bkp.o(i.BKP_DeInit) refers to stm32f10x_rcc.o(i.RCC_BackupResetCmd) for RCC_BackupResetCmd
    stm32f10x_can.o(i.CAN_DeInit) refers to stm32f10x_rcc.o(i.RCC_APB1PeriphResetCmd) for RCC_APB1PeriphResetCmd
    stm32f10x_can.o(i.CAN_GetITStatus) refers to stm32f10x_can.o(i.CheckITStatus) for CheckITStatus
    stm32f10x_cec.o(i.CEC_DeInit) refers to stm32f10x_rcc.o(i.RCC_APB1PeriphResetCmd) for RCC_APB1PeriphResetCmd
    stm32f10x_dac.o(i.DAC_DeInit) refers to stm32f10x_rcc.o(i.RCC_APB1PeriphResetCmd) for RCC_APB1PeriphResetCmd
    stm32f10x_flash.o(i.FLASH_EnableWriteProtection) refers to stm32f10x_flash.o(i.FLASH_WaitForLastOperation) for FLASH_WaitForLastOperation
    stm32f10x_flash.o(i.FLASH_EraseAllBank1Pages) refers to stm32f10x_flash.o(i.FLASH_WaitForLastBank1Operation) for FLASH_WaitForLastBank1Operation
    stm32f10x_flash.o(i.FLASH_EraseAllPages) refers to stm32f10x_flash.o(i.FLASH_WaitForLastOperation) for FLASH_WaitForLastOperation
    stm32f10x_flash.o(i.FLASH_EraseOptionBytes) refers to stm32f10x_flash.o(i.FLASH_GetReadOutProtectionStatus) for FLASH_GetReadOutProtectionStatus
    stm32f10x_flash.o(i.FLASH_EraseOptionBytes) refers to stm32f10x_flash.o(i.FLASH_WaitForLastOperation) for FLASH_WaitForLastOperation
    stm32f10x_flash.o(i.FLASH_ErasePage) refers to stm32f10x_flash.o(i.FLASH_WaitForLastOperation) for FLASH_WaitForLastOperation
    stm32f10x_flash.o(i.FLASH_ProgramHalfWord) refers to stm32f10x_flash.o(i.FLASH_WaitForLastOperation) for FLASH_WaitForLastOperation
    stm32f10x_flash.o(i.FLASH_ProgramOptionByteData) refers to stm32f10x_flash.o(i.FLASH_WaitForLastOperation) for FLASH_WaitForLastOperation
    stm32f10x_flash.o(i.FLASH_ProgramWord) refers to stm32f10x_flash.o(i.FLASH_WaitForLastOperation) for FLASH_WaitForLastOperation
    stm32f10x_flash.o(i.FLASH_ReadOutProtection) refers to stm32f10x_flash.o(i.FLASH_WaitForLastOperation) for FLASH_WaitForLastOperation
    stm32f10x_flash.o(i.FLASH_UserOptionByteConfig) refers to stm32f10x_flash.o(i.FLASH_WaitForLastOperation) for FLASH_WaitForLastOperation
    stm32f10x_flash.o(i.FLASH_WaitForLastBank1Operation) refers to stm32f10x_flash.o(i.FLASH_GetBank1Status) for FLASH_GetBank1Status
    stm32f10x_flash.o(i.FLASH_WaitForLastOperation) refers to stm32f10x_flash.o(i.FLASH_GetBank1Status) for FLASH_GetBank1Status
    stm32f10x_gpio.o(i.GPIO_AFIODeInit) refers to stm32f10x_rcc.o(i.RCC_APB2PeriphResetCmd) for RCC_APB2PeriphResetCmd
    stm32f10x_gpio.o(i.GPIO_DeInit) refers to stm32f10x_rcc.o(i.RCC_APB2PeriphResetCmd) for RCC_APB2PeriphResetCmd
    stm32f10x_i2c.o(i.I2C_DeInit) refers to stm32f10x_rcc.o(i.RCC_APB1PeriphResetCmd) for RCC_APB1PeriphResetCmd
    stm32f10x_i2c.o(i.I2C_Init) refers to stm32f10x_rcc.o(i.RCC_GetClocksFreq) for RCC_GetClocksFreq
    stm32f10x_pwr.o(i.PWR_DeInit) refers to stm32f10x_rcc.o(i.RCC_APB1PeriphResetCmd) for RCC_APB1PeriphResetCmd
    stm32f10x_rcc.o(i.RCC_GetClocksFreq) refers to stm32f10x_rcc.o(.data) for APBAHBPrescTable
    stm32f10x_rcc.o(i.RCC_WaitForHSEStartUp) refers to stm32f10x_rcc.o(i.RCC_GetFlagStatus) for RCC_GetFlagStatus
    stm32f10x_rtc.o(i.RTC_SetAlarm) refers to stm32f10x_rtc.o(i.RTC_EnterConfigMode) for RTC_EnterConfigMode
    stm32f10x_rtc.o(i.RTC_SetAlarm) refers to stm32f10x_rtc.o(i.RTC_ExitConfigMode) for RTC_ExitConfigMode
    stm32f10x_rtc.o(i.RTC_SetCounter) refers to stm32f10x_rtc.o(i.RTC_EnterConfigMode) for RTC_EnterConfigMode
    stm32f10x_rtc.o(i.RTC_SetCounter) refers to stm32f10x_rtc.o(i.RTC_ExitConfigMode) for RTC_ExitConfigMode
    stm32f10x_rtc.o(i.RTC_SetPrescaler) refers to stm32f10x_rtc.o(i.RTC_EnterConfigMode) for RTC_EnterConfigMode
    stm32f10x_rtc.o(i.RTC_SetPrescaler) refers to stm32f10x_rtc.o(i.RTC_ExitConfigMode) for RTC_ExitConfigMode
    stm32f10x_spi.o(i.I2S_Init) refers to stm32f10x_rcc.o(i.RCC_GetClocksFreq) for RCC_GetClocksFreq
    stm32f10x_spi.o(i.SPI_I2S_DeInit) refers to stm32f10x_rcc.o(i.RCC_APB2PeriphResetCmd) for RCC_APB2PeriphResetCmd
    stm32f10x_spi.o(i.SPI_I2S_DeInit) refers to stm32f10x_rcc.o(i.RCC_APB1PeriphResetCmd) for RCC_APB1PeriphResetCmd
    stm32f10x_tim.o(i.TIM_DeInit) refers to stm32f10x_rcc.o(i.RCC_APB2PeriphResetCmd) for RCC_APB2PeriphResetCmd
    stm32f10x_tim.o(i.TIM_DeInit) refers to stm32f10x_rcc.o(i.RCC_APB1PeriphResetCmd) for RCC_APB1PeriphResetCmd
    stm32f10x_tim.o(i.TIM_ETRClockMode1Config) refers to stm32f10x_tim.o(i.TIM_ETRConfig) for TIM_ETRConfig
    stm32f10x_tim.o(i.TIM_ETRClockMode2Config) refers to stm32f10x_tim.o(i.TIM_ETRConfig) for TIM_ETRConfig
    stm32f10x_tim.o(i.TIM_ICInit) refers to stm32f10x_tim.o(i.TI1_Config) for TI1_Config
    stm32f10x_tim.o(i.TIM_ICInit) refers to stm32f10x_tim.o(i.TIM_SetIC1Prescaler) for TIM_SetIC1Prescaler
    stm32f10x_tim.o(i.TIM_ICInit) refers to stm32f10x_tim.o(i.TI2_Config) for TI2_Config
    stm32f10x_tim.o(i.TIM_ICInit) refers to stm32f10x_tim.o(i.TIM_SetIC2Prescaler) for TIM_SetIC2Prescaler
    stm32f10x_tim.o(i.TIM_ICInit) refers to stm32f10x_tim.o(i.TI3_Config) for TI3_Config
    stm32f10x_tim.o(i.TIM_ICInit) refers to stm32f10x_tim.o(i.TIM_SetIC3Prescaler) for TIM_SetIC3Prescaler
    stm32f10x_tim.o(i.TIM_ICInit) refers to stm32f10x_tim.o(i.TI4_Config) for TI4_Config
    stm32f10x_tim.o(i.TIM_ICInit) refers to stm32f10x_tim.o(i.TIM_SetIC4Prescaler) for TIM_SetIC4Prescaler
    stm32f10x_tim.o(i.TIM_ITRxExternalClockConfig) refers to stm32f10x_tim.o(i.TIM_SelectInputTrigger) for TIM_SelectInputTrigger
    stm32f10x_tim.o(i.TIM_PWMIConfig) refers to stm32f10x_tim.o(i.TI1_Config) for TI1_Config
    stm32f10x_tim.o(i.TIM_PWMIConfig) refers to stm32f10x_tim.o(i.TIM_SetIC1Prescaler) for TIM_SetIC1Prescaler
    stm32f10x_tim.o(i.TIM_PWMIConfig) refers to stm32f10x_tim.o(i.TI2_Config) for TI2_Config
    stm32f10x_tim.o(i.TIM_PWMIConfig) refers to stm32f10x_tim.o(i.TIM_SetIC2Prescaler) for TIM_SetIC2Prescaler
    stm32f10x_tim.o(i.TIM_TIxExternalClockConfig) refers to stm32f10x_tim.o(i.TI2_Config) for TI2_Config
    stm32f10x_tim.o(i.TIM_TIxExternalClockConfig) refers to stm32f10x_tim.o(i.TI1_Config) for TI1_Config
    stm32f10x_tim.o(i.TIM_TIxExternalClockConfig) refers to stm32f10x_tim.o(i.TIM_SelectInputTrigger) for TIM_SelectInputTrigger
    stm32f10x_usart.o(i.USART_DeInit) refers to stm32f10x_rcc.o(i.RCC_APB2PeriphResetCmd) for RCC_APB2PeriphResetCmd
    stm32f10x_usart.o(i.USART_DeInit) refers to stm32f10x_rcc.o(i.RCC_APB1PeriphResetCmd) for RCC_APB1PeriphResetCmd
    stm32f10x_usart.o(i.USART_Init) refers to stm32f10x_rcc.o(i.RCC_GetClocksFreq) for RCC_GetClocksFreq
    stm32f10x_wwdg.o(i.WWDG_DeInit) refers to stm32f10x_rcc.o(i.RCC_APB1PeriphResetCmd) for RCC_APB1PeriphResetCmd
    startup_stm32f10x_md.o(RESET) refers to startup_stm32f10x_md.o(STACK) for __initial_sp
    startup_stm32f10x_md.o(RESET) refers to startup_stm32f10x_md.o(.text) for Reset_Handler
    startup_stm32f10x_md.o(RESET) refers to stm32f10x_it.o(i.NMI_Handler) for NMI_Handler
    startup_stm32f10x_md.o(RESET) refers to context_rvds.o(.text) for HardFault_Handler
    startup_stm32f10x_md.o(RESET) refers to stm32f10x_it.o(i.MemManage_Handler) for MemManage_Handler
    startup_stm32f10x_md.o(RESET) refers to stm32f10x_it.o(i.BusFault_Handler) for BusFault_Handler
    startup_stm32f10x_md.o(RESET) refers to stm32f10x_it.o(i.UsageFault_Handler) for UsageFault_Handler
    startup_stm32f10x_md.o(RESET) refers to stm32f10x_it.o(i.DebugMon_Handler) for DebugMon_Handler
    startup_stm32f10x_md.o(RESET) refers to delay.o(i.TIM3_IRQHandler) for TIM3_IRQHandler
    startup_stm32f10x_md.o(RESET) refers to usart.o(i.USART1_IRQHandler) for USART1_IRQHandler
    startup_stm32f10x_md.o(RESET) refers to bq769.o(i.EXTI15_10_IRQHandler) for EXTI15_10_IRQHandler
    startup_stm32f10x_md.o(.text) refers to system_stm32f10x.o(i.SystemInit) for SystemInit
    startup_stm32f10x_md.o(.text) refers to entry.o(.ARM.Collect$$$$00000000) for __main
    system_stm32f10x.o(i.SetSysClock) refers to system_stm32f10x.o(i.SetSysClockTo72) for SetSysClockTo72
    system_stm32f10x.o(i.SystemCoreClockUpdate) refers to system_stm32f10x.o(.data) for SystemCoreClock
    system_stm32f10x.o(i.SystemInit) refers to system_stm32f10x.o(i.SetSysClock) for SetSysClock
    clock.o(i.rt_tick_get) refers to clock.o(.data) for rt_tick
    clock.o(i.rt_tick_get_millisecond) refers to clock.o(i.rt_tick_get) for rt_tick_get
    clock.o(i.rt_tick_increase) refers to context_rvds.o(.text) for rt_hw_interrupt_disable
    clock.o(i.rt_tick_increase) refers to thread.o(i.rt_thread_self) for rt_thread_self
    clock.o(i.rt_tick_increase) refers to scheduler.o(i.rt_schedule) for rt_schedule
    clock.o(i.rt_tick_increase) refers to timer.o(i.rt_timer_check) for rt_timer_check
    clock.o(i.rt_tick_increase) refers to clock.o(.data) for rt_tick
    clock.o(i.rt_tick_set) refers to context_rvds.o(.text) for rt_hw_interrupt_disable
    clock.o(i.rt_tick_set) refers to clock.o(.data) for rt_tick
    components.o(i.$Sub$$main) refers to components.o(i.rtthread_startup) for rtthread_startup
    components.o(i.main_thread_entry) refers to components.o(i.rt_components_init) for rt_components_init
    components.o(i.main_thread_entry) refers to main.o(i.main) for $Super$$main
    components.o(i.rt_application_init) refers to thread.o(i.rt_thread_create) for rt_thread_create
    components.o(i.rt_application_init) refers to thread.o(i.rt_thread_startup) for rt_thread_startup
    components.o(i.rt_application_init) refers to components.o(i.main_thread_entry) for main_thread_entry
    components.o(i.rt_components_board_init) refers to components.o(.rti_fn.0.end) for __rt_init_rti_board_start
    components.o(i.rt_components_board_init) refers to components.o(.rti_fn.1.end) for __rt_init_rti_board_end
    components.o(i.rt_components_init) refers to components.o(.rti_fn.1.end) for __rt_init_rti_board_end
    components.o(i.rt_components_init) refers to components.o(.rti_fn.6.end) for __rt_init_rti_end
    components.o(i.rtthread_startup) refers to context_rvds.o(.text) for rt_hw_interrupt_disable
    components.o(i.rtthread_startup) refers to board.o(i.rt_hw_board_init) for rt_hw_board_init
    components.o(i.rtthread_startup) refers to kservice.o(i.rt_show_version) for rt_show_version
    components.o(i.rtthread_startup) refers to timer.o(i.rt_system_timer_init) for rt_system_timer_init
    components.o(i.rtthread_startup) refers to scheduler.o(i.rt_system_scheduler_init) for rt_system_scheduler_init
    components.o(i.rtthread_startup) refers to components.o(i.rt_application_init) for rt_application_init
    components.o(i.rtthread_startup) refers to timer.o(i.rt_system_timer_thread_init) for rt_system_timer_thread_init
    components.o(i.rtthread_startup) refers to idle.o(i.rt_thread_idle_init) for rt_thread_idle_init
    components.o(i.rtthread_startup) refers to scheduler.o(i.rt_system_scheduler_start) for rt_system_scheduler_start
    components.o(.rti_fn.0) refers to components.o(i.rti_start) for rti_start
    components.o(.rti_fn.0.end) refers to components.o(i.rti_board_start) for rti_board_start
    components.o(.rti_fn.1.end) refers to components.o(i.rti_board_end) for rti_board_end
    components.o(.rti_fn.6.end) refers to components.o(i.rti_end) for rti_end
    idle.o(i.rt_defunct_execute) refers to idle.o(i.rt_thread_defunct_dequeue) for rt_thread_defunct_dequeue
    idle.o(i.rt_defunct_execute) refers to object.o(i.rt_object_is_systemobject) for rt_object_is_systemobject
    idle.o(i.rt_defunct_execute) refers to object.o(i.rt_object_detach) for rt_object_detach
    idle.o(i.rt_defunct_execute) refers to kservice.o(i.rt_free) for rt_free
    idle.o(i.rt_defunct_execute) refers to object.o(i.rt_object_delete) for rt_object_delete
    idle.o(i.rt_thread_defunct_dequeue) refers to context_rvds.o(.text) for rt_hw_interrupt_disable
    idle.o(i.rt_thread_defunct_dequeue) refers to idle.o(.data) for _rt_thread_defunct
    idle.o(i.rt_thread_defunct_enqueue) refers to idle.o(.data) for _rt_thread_defunct
    idle.o(i.rt_thread_idle_entry) refers to idle.o(i.rt_defunct_execute) for rt_defunct_execute
    idle.o(i.rt_thread_idle_gethandler) refers to idle.o(.bss) for idle
    idle.o(i.rt_thread_idle_init) refers to kservice.o(i.rt_sprintf) for rt_sprintf
    idle.o(i.rt_thread_idle_init) refers to thread.o(i.rt_thread_init) for rt_thread_init
    idle.o(i.rt_thread_idle_init) refers to thread.o(i.rt_thread_startup) for rt_thread_startup
    idle.o(i.rt_thread_idle_init) refers to idle.o(.bss) for rt_thread_stack
    idle.o(i.rt_thread_idle_init) refers to idle.o(i.rt_thread_idle_entry) for rt_thread_idle_entry
    ipc.o(i._ipc_list_resume) refers to thread.o(i.rt_thread_resume) for rt_thread_resume
    ipc.o(i._ipc_list_resume_all) refers to context_rvds.o(.text) for rt_hw_interrupt_disable
    ipc.o(i._ipc_list_resume_all) refers to thread.o(i.rt_thread_resume) for rt_thread_resume
    ipc.o(i._ipc_list_resume_all) refers to ipc.o(i.rt_list_isempty) for rt_list_isempty
    ipc.o(i._ipc_list_suspend) refers to thread.o(i.rt_thread_suspend) for rt_thread_suspend
    ipc.o(i._ipc_list_suspend) refers to ipc.o(i.rt_list_insert_before) for rt_list_insert_before
    ipc.o(i._ipc_object_init) refers to ipc.o(i.rt_list_init) for rt_list_init
    ipc.o(i.rt_mb_control) refers to context_rvds.o(.text) for rt_hw_interrupt_disable
    ipc.o(i.rt_mb_control) refers to ipc.o(i._ipc_list_resume_all) for _ipc_list_resume_all
    ipc.o(i.rt_mb_control) refers to scheduler.o(i.rt_schedule) for rt_schedule
    ipc.o(i.rt_mb_create) refers to object.o(i.rt_object_allocate) for rt_object_allocate
    ipc.o(i.rt_mb_create) refers to ipc.o(i._ipc_object_init) for _ipc_object_init
    ipc.o(i.rt_mb_create) refers to kservice.o(i.rt_malloc) for rt_malloc
    ipc.o(i.rt_mb_create) refers to object.o(i.rt_object_delete) for rt_object_delete
    ipc.o(i.rt_mb_create) refers to ipc.o(i.rt_list_init) for rt_list_init
    ipc.o(i.rt_mb_delete) refers to ipc.o(i._ipc_list_resume_all) for _ipc_list_resume_all
    ipc.o(i.rt_mb_delete) refers to kservice.o(i.rt_free) for rt_free
    ipc.o(i.rt_mb_delete) refers to object.o(i.rt_object_delete) for rt_object_delete
    ipc.o(i.rt_mb_detach) refers to ipc.o(i._ipc_list_resume_all) for _ipc_list_resume_all
    ipc.o(i.rt_mb_detach) refers to object.o(i.rt_object_detach) for rt_object_detach
    ipc.o(i.rt_mb_init) refers to object.o(i.rt_object_init) for rt_object_init
    ipc.o(i.rt_mb_init) refers to ipc.o(i._ipc_object_init) for _ipc_object_init
    ipc.o(i.rt_mb_init) refers to ipc.o(i.rt_list_init) for rt_list_init
    ipc.o(i.rt_mb_recv) refers to thread.o(i.rt_thread_self) for rt_thread_self
    ipc.o(i.rt_mb_recv) refers to context_rvds.o(.text) for rt_hw_interrupt_disable
    ipc.o(i.rt_mb_recv) refers to ipc.o(i._ipc_list_suspend) for _ipc_list_suspend
    ipc.o(i.rt_mb_recv) refers to clock.o(i.rt_tick_get) for rt_tick_get
    ipc.o(i.rt_mb_recv) refers to timer.o(i.rt_timer_control) for rt_timer_control
    ipc.o(i.rt_mb_recv) refers to timer.o(i.rt_timer_start) for rt_timer_start
    ipc.o(i.rt_mb_recv) refers to scheduler.o(i.rt_schedule) for rt_schedule
    ipc.o(i.rt_mb_recv) refers to ipc.o(i.rt_list_isempty) for rt_list_isempty
    ipc.o(i.rt_mb_recv) refers to ipc.o(i._ipc_list_resume) for _ipc_list_resume
    ipc.o(i.rt_mb_send) refers to ipc.o(i.rt_mb_send_wait) for rt_mb_send_wait
    ipc.o(i.rt_mb_send_wait) refers to thread.o(i.rt_thread_self) for rt_thread_self
    ipc.o(i.rt_mb_send_wait) refers to context_rvds.o(.text) for rt_hw_interrupt_disable
    ipc.o(i.rt_mb_send_wait) refers to ipc.o(i._ipc_list_suspend) for _ipc_list_suspend
    ipc.o(i.rt_mb_send_wait) refers to clock.o(i.rt_tick_get) for rt_tick_get
    ipc.o(i.rt_mb_send_wait) refers to timer.o(i.rt_timer_control) for rt_timer_control
    ipc.o(i.rt_mb_send_wait) refers to timer.o(i.rt_timer_start) for rt_timer_start
    ipc.o(i.rt_mb_send_wait) refers to scheduler.o(i.rt_schedule) for rt_schedule
    ipc.o(i.rt_mb_send_wait) refers to ipc.o(i.rt_list_isempty) for rt_list_isempty
    ipc.o(i.rt_mb_send_wait) refers to ipc.o(i._ipc_list_resume) for _ipc_list_resume
    ipc.o(i.rt_mb_urgent) refers to context_rvds.o(.text) for rt_hw_interrupt_disable
    ipc.o(i.rt_mb_urgent) refers to ipc.o(i.rt_list_isempty) for rt_list_isempty
    ipc.o(i.rt_mb_urgent) refers to ipc.o(i._ipc_list_resume) for _ipc_list_resume
    ipc.o(i.rt_mb_urgent) refers to scheduler.o(i.rt_schedule) for rt_schedule
    ipc.o(i.rt_sem_control) refers to context_rvds.o(.text) for rt_hw_interrupt_disable
    ipc.o(i.rt_sem_control) refers to ipc.o(i._ipc_list_resume_all) for _ipc_list_resume_all
    ipc.o(i.rt_sem_control) refers to scheduler.o(i.rt_schedule) for rt_schedule
    ipc.o(i.rt_sem_create) refers to object.o(i.rt_object_allocate) for rt_object_allocate
    ipc.o(i.rt_sem_create) refers to ipc.o(i._ipc_object_init) for _ipc_object_init
    ipc.o(i.rt_sem_delete) refers to ipc.o(i._ipc_list_resume_all) for _ipc_list_resume_all
    ipc.o(i.rt_sem_delete) refers to object.o(i.rt_object_delete) for rt_object_delete
    ipc.o(i.rt_sem_detach) refers to ipc.o(i._ipc_list_resume_all) for _ipc_list_resume_all
    ipc.o(i.rt_sem_detach) refers to object.o(i.rt_object_detach) for rt_object_detach
    ipc.o(i.rt_sem_init) refers to object.o(i.rt_object_init) for rt_object_init
    ipc.o(i.rt_sem_init) refers to ipc.o(i._ipc_object_init) for _ipc_object_init
    ipc.o(i.rt_sem_release) refers to context_rvds.o(.text) for rt_hw_interrupt_disable
    ipc.o(i.rt_sem_release) refers to ipc.o(i.rt_list_isempty) for rt_list_isempty
    ipc.o(i.rt_sem_release) refers to ipc.o(i._ipc_list_resume) for _ipc_list_resume
    ipc.o(i.rt_sem_release) refers to scheduler.o(i.rt_schedule) for rt_schedule
    ipc.o(i.rt_sem_take) refers to context_rvds.o(.text) for rt_hw_interrupt_disable
    ipc.o(i.rt_sem_take) refers to thread.o(i.rt_thread_self) for rt_thread_self
    ipc.o(i.rt_sem_take) refers to ipc.o(i._ipc_list_suspend) for _ipc_list_suspend
    ipc.o(i.rt_sem_take) refers to timer.o(i.rt_timer_control) for rt_timer_control
    ipc.o(i.rt_sem_take) refers to timer.o(i.rt_timer_start) for rt_timer_start
    ipc.o(i.rt_sem_take) refers to scheduler.o(i.rt_schedule) for rt_schedule
    ipc.o(i.rt_sem_trytake) refers to ipc.o(i.rt_sem_take) for rt_sem_take
    irq.o(i.rt_interrupt_enter) refers to context_rvds.o(.text) for rt_hw_interrupt_disable
    irq.o(i.rt_interrupt_enter) refers to irq.o(.data) for rt_interrupt_nest
    irq.o(i.rt_interrupt_get_nest) refers to context_rvds.o(.text) for rt_hw_interrupt_disable
    irq.o(i.rt_interrupt_get_nest) refers to irq.o(.data) for rt_interrupt_nest
    irq.o(i.rt_interrupt_leave) refers to context_rvds.o(.text) for rt_hw_interrupt_disable
    irq.o(i.rt_interrupt_leave) refers to irq.o(.data) for rt_interrupt_nest
    kservice.o(i.__rt_ffs) refers to kservice.o(.constdata) for __lowest_bit_bitmap
    kservice.o(i._heap_lock) refers to scheduler.o(i.rt_enter_critical) for rt_enter_critical
    kservice.o(i._heap_unlock) refers to scheduler.o(i.rt_exit_critical) for rt_exit_critical
    kservice.o(i._rt_errno) refers to irq.o(i.rt_interrupt_get_nest) for rt_interrupt_get_nest
    kservice.o(i._rt_errno) refers to thread.o(i.rt_thread_self) for rt_thread_self
    kservice.o(i._rt_errno) refers to kservice.o(.data) for __rt_errno
    kservice.o(i.print_number) refers to kservice.o(.constdata) for large_digits
    kservice.o(i.rt_calloc) refers to kservice.o(i.rt_malloc) for rt_malloc
    kservice.o(i.rt_calloc) refers to kservice.o(i.rt_memset) for rt_memset
    kservice.o(i.rt_free) refers to kservice.o(i._heap_lock) for _heap_lock
    kservice.o(i.rt_free) refers to mem.o(i.rt_smem_free) for rt_smem_free
    kservice.o(i.rt_free) refers to kservice.o(i._heap_unlock) for _heap_unlock
    kservice.o(i.rt_free_align) refers to kservice.o(i.rt_free) for rt_free
    kservice.o(i.rt_get_errno) refers to irq.o(i.rt_interrupt_get_nest) for rt_interrupt_get_nest
    kservice.o(i.rt_get_errno) refers to thread.o(i.rt_thread_self) for rt_thread_self
    kservice.o(i.rt_get_errno) refers to kservice.o(.data) for __rt_errno
    kservice.o(i.rt_kprintf) refers to kservice.o(i.rt_vsnprintf) for rt_vsnprintf
    kservice.o(i.rt_kprintf) refers to board.o(i.rt_hw_console_output) for rt_hw_console_output
    kservice.o(i.rt_kprintf) refers to kservice.o(.bss) for rt_log_buf
    kservice.o(i.rt_kputs) refers to board.o(i.rt_hw_console_output) for rt_hw_console_output
    kservice.o(i.rt_malloc) refers to kservice.o(i._heap_lock) for _heap_lock
    kservice.o(i.rt_malloc) refers to mem.o(i.rt_smem_alloc) for rt_smem_alloc
    kservice.o(i.rt_malloc) refers to kservice.o(i._heap_unlock) for _heap_unlock
    kservice.o(i.rt_malloc) refers to kservice.o(.data) for system_heap
    kservice.o(i.rt_malloc_align) refers to kservice.o(i.rt_malloc) for rt_malloc
    kservice.o(i.rt_memory_info) refers to kservice.o(i._heap_lock) for _heap_lock
    kservice.o(i.rt_memory_info) refers to kservice.o(i._heap_unlock) for _heap_unlock
    kservice.o(i.rt_memory_info) refers to kservice.o(.data) for system_heap
    kservice.o(i.rt_realloc) refers to kservice.o(i._heap_lock) for _heap_lock
    kservice.o(i.rt_realloc) refers to mem.o(i.rt_smem_realloc) for rt_smem_realloc
    kservice.o(i.rt_realloc) refers to kservice.o(i._heap_unlock) for _heap_unlock
    kservice.o(i.rt_realloc) refers to kservice.o(.data) for system_heap
    kservice.o(i.rt_set_errno) refers to irq.o(i.rt_interrupt_get_nest) for rt_interrupt_get_nest
    kservice.o(i.rt_set_errno) refers to thread.o(i.rt_thread_self) for rt_thread_self
    kservice.o(i.rt_set_errno) refers to kservice.o(.data) for __rt_errno
    kservice.o(i.rt_show_version) refers to kservice.o(i.rt_kprintf) for rt_kprintf
    kservice.o(i.rt_snprintf) refers to kservice.o(i.rt_vsnprintf) for rt_vsnprintf
    kservice.o(i.rt_sprintf) refers to kservice.o(i.rt_vsprintf) for rt_vsprintf
    kservice.o(i.rt_strdup) refers to kservice.o(i.rt_strlen) for rt_strlen
    kservice.o(i.rt_strdup) refers to kservice.o(i.rt_malloc) for rt_malloc
    kservice.o(i.rt_strdup) refers to kservice.o(i.rt_memcpy) for rt_memcpy
    kservice.o(i.rt_strerror) refers to kservice.o(.data) for rt_errno_strs
    kservice.o(i.rt_strstr) refers to kservice.o(i.rt_strlen) for rt_strlen
    kservice.o(i.rt_strstr) refers to kservice.o(i.rt_memcmp) for rt_memcmp
    kservice.o(i.rt_system_heap_init) refers to mem.o(i.rt_smem_init) for rt_smem_init
    kservice.o(i.rt_system_heap_init) refers to kservice.o(.data) for system_heap
    kservice.o(i.rt_vsnprintf) refers to kservice.o(i.skip_atoi) for skip_atoi
    kservice.o(i.rt_vsnprintf) refers to kservice.o(i.print_number) for print_number
    kservice.o(i.rt_vsprintf) refers to kservice.o(i.rt_vsnprintf) for rt_vsnprintf
    kservice.o(.data) refers to kservice.o(.conststring) for .conststring
    mem.o(i.rt_smem_detach) refers to object.o(i.rt_object_detach) for rt_object_detach
    mem.o(i.rt_smem_free) refers to mem.o(i.plug_holes) for plug_holes
    mem.o(i.rt_smem_init) refers to kservice.o(i.rt_kprintf) for rt_kprintf
    mem.o(i.rt_smem_init) refers to kservice.o(i.rt_memset) for rt_memset
    mem.o(i.rt_smem_init) refers to object.o(i.rt_object_init) for rt_object_init
    mem.o(i.rt_smem_realloc) refers to mem.o(i.rt_smem_free) for rt_smem_free
    mem.o(i.rt_smem_realloc) refers to mem.o(i.rt_smem_alloc) for rt_smem_alloc
    mem.o(i.rt_smem_realloc) refers to mem.o(i.plug_holes) for plug_holes
    mem.o(i.rt_smem_realloc) refers to kservice.o(i.rt_memcpy) for rt_memcpy
    object.o(i.rt_object_allocate) refers to object.o(i.rt_object_get_information) for rt_object_get_information
    object.o(i.rt_object_allocate) refers to kservice.o(i.rt_malloc) for rt_malloc
    object.o(i.rt_object_allocate) refers to kservice.o(i.rt_memset) for rt_memset
    object.o(i.rt_object_allocate) refers to kservice.o(i.rt_strncpy) for rt_strncpy
    object.o(i.rt_object_allocate) refers to context_rvds.o(.text) for rt_hw_interrupt_disable
    object.o(i.rt_object_allocate) refers to object.o(i.rt_list_insert_after) for rt_list_insert_after
    object.o(i.rt_object_delete) refers to context_rvds.o(.text) for rt_hw_interrupt_disable
    object.o(i.rt_object_delete) refers to object.o(i.rt_list_remove) for rt_list_remove
    object.o(i.rt_object_delete) refers to kservice.o(i.rt_free) for rt_free
    object.o(i.rt_object_detach) refers to context_rvds.o(.text) for rt_hw_interrupt_disable
    object.o(i.rt_object_detach) refers to object.o(i.rt_list_remove) for rt_list_remove
    object.o(i.rt_object_find) refers to object.o(i.rt_object_get_information) for rt_object_get_information
    object.o(i.rt_object_find) refers to scheduler.o(i.rt_enter_critical) for rt_enter_critical
    object.o(i.rt_object_find) refers to kservice.o(i.rt_strncmp) for rt_strncmp
    object.o(i.rt_object_find) refers to scheduler.o(i.rt_exit_critical) for rt_exit_critical
    object.o(i.rt_object_get_information) refers to object.o(.data) for _object_container
    object.o(i.rt_object_get_length) refers to object.o(i.rt_object_get_information) for rt_object_get_information
    object.o(i.rt_object_get_length) refers to context_rvds.o(.text) for rt_hw_interrupt_disable
    object.o(i.rt_object_get_pointers) refers to object.o(i.rt_object_get_information) for rt_object_get_information
    object.o(i.rt_object_get_pointers) refers to context_rvds.o(.text) for rt_hw_interrupt_disable
    object.o(i.rt_object_init) refers to object.o(i.rt_object_get_information) for rt_object_get_information
    object.o(i.rt_object_init) refers to scheduler.o(i.rt_enter_critical) for rt_enter_critical
    object.o(i.rt_object_init) refers to scheduler.o(i.rt_exit_critical) for rt_exit_critical
    object.o(i.rt_object_init) refers to kservice.o(i.rt_strncpy) for rt_strncpy
    object.o(i.rt_object_init) refers to context_rvds.o(.text) for rt_hw_interrupt_disable
    object.o(i.rt_object_init) refers to object.o(i.rt_list_insert_after) for rt_list_insert_after
    scheduler.o(i._scheduler_get_highest_priority_thread) refers to kservice.o(i.__rt_ffs) for __rt_ffs
    scheduler.o(i._scheduler_get_highest_priority_thread) refers to scheduler.o(.data) for rt_thread_ready_priority_group
    scheduler.o(i._scheduler_get_highest_priority_thread) refers to scheduler.o(.bss) for rt_thread_priority_table
    scheduler.o(i.rt_critical_level) refers to scheduler.o(.data) for rt_scheduler_lock_nest
    scheduler.o(i.rt_enter_critical) refers to context_rvds.o(.text) for rt_hw_interrupt_disable
    scheduler.o(i.rt_enter_critical) refers to scheduler.o(.data) for rt_scheduler_lock_nest
    scheduler.o(i.rt_exit_critical) refers to context_rvds.o(.text) for rt_hw_interrupt_disable
    scheduler.o(i.rt_exit_critical) refers to scheduler.o(i.rt_schedule) for rt_schedule
    scheduler.o(i.rt_exit_critical) refers to scheduler.o(.data) for rt_scheduler_lock_nest
    scheduler.o(i.rt_schedule) refers to context_rvds.o(.text) for rt_hw_interrupt_disable
    scheduler.o(i.rt_schedule) refers to scheduler.o(i._scheduler_get_highest_priority_thread) for _scheduler_get_highest_priority_thread
    scheduler.o(i.rt_schedule) refers to scheduler.o(i.rt_schedule_insert_thread) for rt_schedule_insert_thread
    scheduler.o(i.rt_schedule) refers to scheduler.o(i.rt_schedule_remove_thread) for rt_schedule_remove_thread
    scheduler.o(i.rt_schedule) refers to scheduler.o(.data) for rt_scheduler_lock_nest
    scheduler.o(i.rt_schedule) refers to irq.o(.data) for rt_interrupt_nest
    scheduler.o(i.rt_schedule_insert_thread) refers to context_rvds.o(.text) for rt_hw_interrupt_disable
    scheduler.o(i.rt_schedule_insert_thread) refers to scheduler.o(.data) for rt_current_thread
    scheduler.o(i.rt_schedule_insert_thread) refers to scheduler.o(.bss) for rt_thread_priority_table
    scheduler.o(i.rt_schedule_remove_thread) refers to context_rvds.o(.text) for rt_hw_interrupt_disable
    scheduler.o(i.rt_schedule_remove_thread) refers to scheduler.o(.bss) for rt_thread_priority_table
    scheduler.o(i.rt_schedule_remove_thread) refers to scheduler.o(.data) for rt_thread_ready_priority_group
    scheduler.o(i.rt_system_scheduler_init) refers to scheduler.o(.data) for rt_scheduler_lock_nest
    scheduler.o(i.rt_system_scheduler_init) refers to scheduler.o(.bss) for rt_thread_priority_table
    scheduler.o(i.rt_system_scheduler_start) refers to scheduler.o(i._scheduler_get_highest_priority_thread) for _scheduler_get_highest_priority_thread
    scheduler.o(i.rt_system_scheduler_start) refers to scheduler.o(i.rt_schedule_remove_thread) for rt_schedule_remove_thread
    scheduler.o(i.rt_system_scheduler_start) refers to context_rvds.o(.text) for rt_hw_context_switch_to
    scheduler.o(i.rt_system_scheduler_start) refers to scheduler.o(.data) for rt_current_thread
    thread.o(i._thread_exit) refers to thread.o(i.rt_thread_self) for rt_thread_self
    thread.o(i._thread_exit) refers to context_rvds.o(.text) for rt_hw_interrupt_disable
    thread.o(i._thread_exit) refers to scheduler.o(i.rt_schedule_remove_thread) for rt_schedule_remove_thread
    thread.o(i._thread_exit) refers to timer.o(i.rt_timer_detach) for rt_timer_detach
    thread.o(i._thread_exit) refers to idle.o(i.rt_thread_defunct_enqueue) for rt_thread_defunct_enqueue
    thread.o(i._thread_exit) refers to scheduler.o(i.rt_schedule) for rt_schedule
    thread.o(i._thread_init) refers to kservice.o(i.rt_memset) for rt_memset
    thread.o(i._thread_init) refers to cpuport.o(i.rt_hw_stack_init) for rt_hw_stack_init
    thread.o(i._thread_init) refers to timer.o(i.rt_timer_init) for rt_timer_init
    thread.o(i._thread_init) refers to thread.o(i._thread_exit) for _thread_exit
    thread.o(i._thread_init) refers to thread.o(i._thread_timeout) for _thread_timeout
    thread.o(i._thread_timeout) refers to context_rvds.o(.text) for rt_hw_interrupt_disable
    thread.o(i._thread_timeout) refers to thread.o(i.rt_list_remove) for rt_list_remove
    thread.o(i._thread_timeout) refers to scheduler.o(i.rt_schedule_insert_thread) for rt_schedule_insert_thread
    thread.o(i._thread_timeout) refers to scheduler.o(i.rt_schedule) for rt_schedule
    thread.o(i.rt_thread_control) refers to context_rvds.o(.text) for rt_hw_interrupt_disable
    thread.o(i.rt_thread_control) refers to scheduler.o(i.rt_schedule_remove_thread) for rt_schedule_remove_thread
    thread.o(i.rt_thread_control) refers to scheduler.o(i.rt_schedule_insert_thread) for rt_schedule_insert_thread
    thread.o(i.rt_thread_control) refers to thread.o(i.rt_thread_startup) for rt_thread_startup
    thread.o(i.rt_thread_control) refers to object.o(i.rt_object_is_systemobject) for rt_object_is_systemobject
    thread.o(i.rt_thread_control) refers to thread.o(i.rt_thread_detach) for rt_thread_detach
    thread.o(i.rt_thread_control) refers to thread.o(i.rt_thread_delete) for rt_thread_delete
    thread.o(i.rt_thread_control) refers to scheduler.o(i.rt_schedule) for rt_schedule
    thread.o(i.rt_thread_create) refers to object.o(i.rt_object_allocate) for rt_object_allocate
    thread.o(i.rt_thread_create) refers to kservice.o(i.rt_malloc) for rt_malloc
    thread.o(i.rt_thread_create) refers to object.o(i.rt_object_delete) for rt_object_delete
    thread.o(i.rt_thread_create) refers to thread.o(i._thread_init) for _thread_init
    thread.o(i.rt_thread_delay) refers to thread.o(i.rt_thread_sleep) for rt_thread_sleep
    thread.o(i.rt_thread_delay_until) refers to thread.o(i.rt_thread_self) for rt_thread_self
    thread.o(i.rt_thread_delay_until) refers to context_rvds.o(.text) for rt_hw_interrupt_disable
    thread.o(i.rt_thread_delay_until) refers to clock.o(i.rt_tick_get) for rt_tick_get
    thread.o(i.rt_thread_delay_until) refers to thread.o(i.rt_thread_suspend) for rt_thread_suspend
    thread.o(i.rt_thread_delay_until) refers to timer.o(i.rt_timer_control) for rt_timer_control
    thread.o(i.rt_thread_delay_until) refers to timer.o(i.rt_timer_start) for rt_timer_start
    thread.o(i.rt_thread_delay_until) refers to scheduler.o(i.rt_schedule) for rt_schedule
    thread.o(i.rt_thread_delete) refers to scheduler.o(i.rt_schedule_remove_thread) for rt_schedule_remove_thread
    thread.o(i.rt_thread_delete) refers to context_rvds.o(.text) for rt_hw_interrupt_disable
    thread.o(i.rt_thread_delete) refers to timer.o(i.rt_timer_detach) for rt_timer_detach
    thread.o(i.rt_thread_delete) refers to idle.o(i.rt_thread_defunct_enqueue) for rt_thread_defunct_enqueue
    thread.o(i.rt_thread_detach) refers to scheduler.o(i.rt_schedule_remove_thread) for rt_schedule_remove_thread
    thread.o(i.rt_thread_detach) refers to context_rvds.o(.text) for rt_hw_interrupt_disable
    thread.o(i.rt_thread_detach) refers to timer.o(i.rt_timer_detach) for rt_timer_detach
    thread.o(i.rt_thread_detach) refers to idle.o(i.rt_thread_defunct_enqueue) for rt_thread_defunct_enqueue
    thread.o(i.rt_thread_find) refers to object.o(i.rt_object_find) for rt_object_find
    thread.o(i.rt_thread_init) refers to object.o(i.rt_object_init) for rt_object_init
    thread.o(i.rt_thread_init) refers to thread.o(i._thread_init) for _thread_init
    thread.o(i.rt_thread_mdelay) refers to clock.o(i.rt_tick_from_millisecond) for rt_tick_from_millisecond
    thread.o(i.rt_thread_mdelay) refers to thread.o(i.rt_thread_sleep) for rt_thread_sleep
    thread.o(i.rt_thread_resume) refers to context_rvds.o(.text) for rt_hw_interrupt_disable
    thread.o(i.rt_thread_resume) refers to thread.o(i.rt_list_remove) for rt_list_remove
    thread.o(i.rt_thread_resume) refers to timer.o(i.rt_timer_stop) for rt_timer_stop
    thread.o(i.rt_thread_resume) refers to scheduler.o(i.rt_schedule_insert_thread) for rt_schedule_insert_thread
    thread.o(i.rt_thread_self) refers to scheduler.o(.data) for rt_current_thread
    thread.o(i.rt_thread_sleep) refers to thread.o(i.rt_thread_self) for rt_thread_self
    thread.o(i.rt_thread_sleep) refers to context_rvds.o(.text) for rt_hw_interrupt_disable
    thread.o(i.rt_thread_sleep) refers to thread.o(i.rt_thread_suspend) for rt_thread_suspend
    thread.o(i.rt_thread_sleep) refers to timer.o(i.rt_timer_control) for rt_timer_control
    thread.o(i.rt_thread_sleep) refers to timer.o(i.rt_timer_start) for rt_timer_start
    thread.o(i.rt_thread_sleep) refers to scheduler.o(i.rt_schedule) for rt_schedule
    thread.o(i.rt_thread_startup) refers to thread.o(i.rt_thread_resume) for rt_thread_resume
    thread.o(i.rt_thread_startup) refers to thread.o(i.rt_thread_self) for rt_thread_self
    thread.o(i.rt_thread_startup) refers to scheduler.o(i.rt_schedule) for rt_schedule
    thread.o(i.rt_thread_suspend) refers to context_rvds.o(.text) for rt_hw_interrupt_disable
    thread.o(i.rt_thread_suspend) refers to scheduler.o(i.rt_schedule_remove_thread) for rt_schedule_remove_thread
    thread.o(i.rt_thread_suspend) refers to timer.o(i.rt_timer_stop) for rt_timer_stop
    thread.o(i.rt_thread_yield) refers to thread.o(i.rt_thread_self) for rt_thread_self
    thread.o(i.rt_thread_yield) refers to context_rvds.o(.text) for rt_hw_interrupt_disable
    thread.o(i.rt_thread_yield) refers to scheduler.o(i.rt_schedule) for rt_schedule
    timer.o(i._timer_init) refers to timer.o(i.rt_list_init) for rt_list_init
    timer.o(i._timer_list_next_timeout) refers to context_rvds.o(.text) for rt_hw_interrupt_disable
    timer.o(i._timer_list_next_timeout) refers to timer.o(i.rt_list_isempty) for rt_list_isempty
    timer.o(i._timer_remove) refers to timer.o(i.rt_list_remove) for rt_list_remove
    timer.o(i._timer_thread_entry) refers to timer.o(i._timer_list_next_timeout) for _timer_list_next_timeout
    timer.o(i._timer_thread_entry) refers to thread.o(i.rt_thread_self) for rt_thread_self
    timer.o(i._timer_thread_entry) refers to thread.o(i.rt_thread_suspend) for rt_thread_suspend
    timer.o(i._timer_thread_entry) refers to scheduler.o(i.rt_schedule) for rt_schedule
    timer.o(i._timer_thread_entry) refers to clock.o(i.rt_tick_get) for rt_tick_get
    timer.o(i._timer_thread_entry) refers to thread.o(i.rt_thread_delay) for rt_thread_delay
    timer.o(i._timer_thread_entry) refers to timer.o(i.rt_soft_timer_check) for rt_soft_timer_check
    timer.o(i._timer_thread_entry) refers to timer.o(.data) for _soft_timer_list
    timer.o(i.rt_soft_timer_check) refers to timer.o(i.rt_list_init) for rt_list_init
    timer.o(i.rt_soft_timer_check) refers to context_rvds.o(.text) for rt_hw_interrupt_disable
    timer.o(i.rt_soft_timer_check) refers to clock.o(i.rt_tick_get) for rt_tick_get
    timer.o(i.rt_soft_timer_check) refers to timer.o(i._timer_remove) for _timer_remove
    timer.o(i.rt_soft_timer_check) refers to timer.o(i.rt_list_insert_after) for rt_list_insert_after
    timer.o(i.rt_soft_timer_check) refers to timer.o(i.rt_list_isempty) for rt_list_isempty
    timer.o(i.rt_soft_timer_check) refers to timer.o(i.rt_list_remove) for rt_list_remove
    timer.o(i.rt_soft_timer_check) refers to timer.o(i.rt_timer_start) for rt_timer_start
    timer.o(i.rt_soft_timer_check) refers to timer.o(.data) for _soft_timer_list
    timer.o(i.rt_system_timer_init) refers to timer.o(i.rt_list_init) for rt_list_init
    timer.o(i.rt_system_timer_init) refers to timer.o(.data) for _timer_list
    timer.o(i.rt_system_timer_thread_init) refers to timer.o(i.rt_list_init) for rt_list_init
    timer.o(i.rt_system_timer_thread_init) refers to thread.o(i.rt_thread_init) for rt_thread_init
    timer.o(i.rt_system_timer_thread_init) refers to thread.o(i.rt_thread_startup) for rt_thread_startup
    timer.o(i.rt_system_timer_thread_init) refers to timer.o(.data) for _soft_timer_list
    timer.o(i.rt_system_timer_thread_init) refers to timer.o(.bss) for _timer_thread_stack
    timer.o(i.rt_system_timer_thread_init) refers to timer.o(i._timer_thread_entry) for _timer_thread_entry
    timer.o(i.rt_timer_check) refers to timer.o(i.rt_list_init) for rt_list_init
    timer.o(i.rt_timer_check) refers to clock.o(i.rt_tick_get) for rt_tick_get
    timer.o(i.rt_timer_check) refers to context_rvds.o(.text) for rt_hw_interrupt_disable
    timer.o(i.rt_timer_check) refers to timer.o(i._timer_remove) for _timer_remove
    timer.o(i.rt_timer_check) refers to timer.o(i.rt_list_insert_after) for rt_list_insert_after
    timer.o(i.rt_timer_check) refers to timer.o(i.rt_list_isempty) for rt_list_isempty
    timer.o(i.rt_timer_check) refers to timer.o(i.rt_list_remove) for rt_list_remove
    timer.o(i.rt_timer_check) refers to timer.o(i.rt_timer_start) for rt_timer_start
    timer.o(i.rt_timer_check) refers to timer.o(.data) for _timer_list
    timer.o(i.rt_timer_control) refers to context_rvds.o(.text) for rt_hw_interrupt_disable
    timer.o(i.rt_timer_create) refers to object.o(i.rt_object_allocate) for rt_object_allocate
    timer.o(i.rt_timer_create) refers to timer.o(i._timer_init) for _timer_init
    timer.o(i.rt_timer_delete) refers to context_rvds.o(.text) for rt_hw_interrupt_disable
    timer.o(i.rt_timer_delete) refers to timer.o(i._timer_remove) for _timer_remove
    timer.o(i.rt_timer_delete) refers to object.o(i.rt_object_delete) for rt_object_delete
    timer.o(i.rt_timer_detach) refers to context_rvds.o(.text) for rt_hw_interrupt_disable
    timer.o(i.rt_timer_detach) refers to timer.o(i._timer_remove) for _timer_remove
    timer.o(i.rt_timer_detach) refers to object.o(i.rt_object_detach) for rt_object_detach
    timer.o(i.rt_timer_init) refers to object.o(i.rt_object_init) for rt_object_init
    timer.o(i.rt_timer_init) refers to timer.o(i._timer_init) for _timer_init
    timer.o(i.rt_timer_next_timeout_tick) refers to timer.o(i._timer_list_next_timeout) for _timer_list_next_timeout
    timer.o(i.rt_timer_next_timeout_tick) refers to timer.o(.data) for _timer_list
    timer.o(i.rt_timer_start) refers to context_rvds.o(.text) for rt_hw_interrupt_disable
    timer.o(i.rt_timer_start) refers to timer.o(i._timer_remove) for _timer_remove
    timer.o(i.rt_timer_start) refers to clock.o(i.rt_tick_get) for rt_tick_get
    timer.o(i.rt_timer_start) refers to timer.o(i.rt_list_insert_after) for rt_list_insert_after
    timer.o(i.rt_timer_start) refers to thread.o(i.rt_thread_resume) for rt_thread_resume
    timer.o(i.rt_timer_start) refers to scheduler.o(i.rt_schedule) for rt_schedule
    timer.o(i.rt_timer_start) refers to timer.o(.data) for _soft_timer_list
    timer.o(i.rt_timer_start) refers to timer.o(.bss) for _timer_thread
    timer.o(i.rt_timer_stop) refers to context_rvds.o(.text) for rt_hw_interrupt_disable
    timer.o(i.rt_timer_stop) refers to timer.o(i._timer_remove) for _timer_remove
    context_rvds.o(.text) refers to cpuport.o(i.rt_hw_hard_fault_exception) for rt_hw_hard_fault_exception
    context_rvds.o(.text) refers to cpuport.o(.data) for rt_thread_switch_interrupt_flag
    cpuport.o(i.bus_fault_track) refers to kservice.o(i.rt_kprintf) for rt_kprintf
    cpuport.o(i.hard_fault_track) refers to kservice.o(i.rt_kprintf) for rt_kprintf
    cpuport.o(i.hard_fault_track) refers to cpuport.o(i.bus_fault_track) for bus_fault_track
    cpuport.o(i.hard_fault_track) refers to cpuport.o(i.mem_manage_fault_track) for mem_manage_fault_track
    cpuport.o(i.hard_fault_track) refers to cpuport.o(i.usage_fault_track) for usage_fault_track
    cpuport.o(i.mem_manage_fault_track) refers to kservice.o(i.rt_kprintf) for rt_kprintf
    cpuport.o(i.rt_hw_cpu_shutdown) refers to kservice.o(i.rt_kprintf) for rt_kprintf
    cpuport.o(i.rt_hw_exception_install) refers to cpuport.o(.data) for rt_exception_hook
    cpuport.o(i.rt_hw_hard_fault_exception) refers to kservice.o(i.rt_kprintf) for rt_kprintf
    cpuport.o(i.rt_hw_hard_fault_exception) refers to thread.o(i.rt_thread_self) for rt_thread_self
    cpuport.o(i.rt_hw_hard_fault_exception) refers to cmd.o(i.list_thread) for list_thread
    cpuport.o(i.rt_hw_hard_fault_exception) refers to cpuport.o(i.hard_fault_track) for hard_fault_track
    cpuport.o(i.rt_hw_hard_fault_exception) refers to cpuport.o(.data) for rt_exception_hook
    cpuport.o(i.usage_fault_track) refers to kservice.o(i.rt_kprintf) for rt_kprintf
    cmd.o(i.clear) refers to kservice.o(i.rt_kprintf) for rt_kprintf
    cmd.o(i.cmd_list) refers to strcmp.o(.text) for strcmp
    cmd.o(i.cmd_list) refers to cmd.o(i.list_thread) for list_thread
    cmd.o(i.cmd_list) refers to cmd.o(i.list_timer) for list_timer
    cmd.o(i.cmd_list) refers to cmd.o(i.list_sem) for list_sem
    cmd.o(i.cmd_list) refers to cmd.o(i.list_mailbox) for list_mailbox
    cmd.o(i.cmd_list) refers to kservice.o(i.rt_kprintf) for rt_kprintf
    cmd.o(i.list_find_init) refers to object.o(i.rt_object_get_information) for rt_object_get_information
    cmd.o(i.list_get_next) refers to context_rvds.o(.text) for rt_hw_interrupt_disable
    cmd.o(i.list_mailbox) refers to cmd.o(i.list_find_init) for list_find_init
    cmd.o(i.list_mailbox) refers to kservice.o(i.rt_kprintf) for rt_kprintf
    cmd.o(i.list_mailbox) refers to cmd.o(i.object_split) for object_split
    cmd.o(i.list_mailbox) refers to cmd.o(i.list_get_next) for list_get_next
    cmd.o(i.list_mailbox) refers to context_rvds.o(.text) for rt_hw_interrupt_disable
    cmd.o(i.list_mailbox) refers to cmd.o(i.rt_list_isempty) for rt_list_isempty
    cmd.o(i.list_mailbox) refers to cmd.o(i.rt_list_len) for rt_list_len
    cmd.o(i.list_mailbox) refers to cmd.o(i.show_wait_queue) for show_wait_queue
    cmd.o(i.list_sem) refers to cmd.o(i.list_find_init) for list_find_init
    cmd.o(i.list_sem) refers to kservice.o(i.rt_kprintf) for rt_kprintf
    cmd.o(i.list_sem) refers to cmd.o(i.object_split) for object_split
    cmd.o(i.list_sem) refers to cmd.o(i.list_get_next) for list_get_next
    cmd.o(i.list_sem) refers to context_rvds.o(.text) for rt_hw_interrupt_disable
    cmd.o(i.list_sem) refers to cmd.o(i.rt_list_isempty) for rt_list_isempty
    cmd.o(i.list_sem) refers to cmd.o(i.rt_list_len) for rt_list_len
    cmd.o(i.list_sem) refers to cmd.o(i.show_wait_queue) for show_wait_queue
    cmd.o(i.list_thread) refers to cmd.o(i.list_find_init) for list_find_init
    cmd.o(i.list_thread) refers to kservice.o(i.rt_kprintf) for rt_kprintf
    cmd.o(i.list_thread) refers to cmd.o(i.object_split) for object_split
    cmd.o(i.list_thread) refers to cmd.o(i.list_get_next) for list_get_next
    cmd.o(i.list_thread) refers to context_rvds.o(.text) for rt_hw_interrupt_disable
    cmd.o(i.list_thread) refers to kservice.o(i.rt_memcpy) for rt_memcpy
    cmd.o(i.list_thread) refers to kservice.o(i.rt_strerror) for rt_strerror
    cmd.o(i.list_thread) refers to cmd.o(.conststring) for .conststring
    cmd.o(i.list_timer) refers to cmd.o(i.list_find_init) for list_find_init
    cmd.o(i.list_timer) refers to kservice.o(i.rt_kprintf) for rt_kprintf
    cmd.o(i.list_timer) refers to cmd.o(i.object_split) for object_split
    cmd.o(i.list_timer) refers to cmd.o(i.list_get_next) for list_get_next
    cmd.o(i.list_timer) refers to context_rvds.o(.text) for rt_hw_interrupt_disable
    cmd.o(i.list_timer) refers to clock.o(i.rt_tick_get) for rt_tick_get
    cmd.o(i.object_split) refers to kservice.o(i.rt_kprintf) for rt_kprintf
    cmd.o(i.show_wait_queue) refers to kservice.o(i.rt_kprintf) for rt_kprintf
    cmd.o(i.version) refers to kservice.o(i.rt_show_version) for rt_show_version
    cmd.o(FSymTab) refers to cmd.o(.rodata.name) for __fsym_clear_name
    cmd.o(FSymTab) refers to cmd.o(i.clear) for clear
    cmd.o(FSymTab) refers to cmd.o(i.version) for version
    cmd.o(FSymTab) refers to cmd.o(i.list_thread) for list_thread
    cmd.o(FSymTab) refers to cmd.o(i.list_sem) for list_sem
    cmd.o(FSymTab) refers to cmd.o(i.list_mailbox) for list_mailbox
    cmd.o(FSymTab) refers to cmd.o(i.list_timer) for list_timer
    cmd.o(FSymTab) refers to cmd.o(i.cmd_list) for cmd_list
    msh.o(i._msh_exec_cmd) refers to msh.o(i.msh_get_cmd) for msh_get_cmd
    msh.o(i._msh_exec_cmd) refers to kservice.o(i.rt_memset) for rt_memset
    msh.o(i._msh_exec_cmd) refers to msh.o(i.msh_split) for msh_split
    msh.o(i.cmd_free) refers to kservice.o(i.rt_memory_info) for rt_memory_info
    msh.o(i.cmd_free) refers to kservice.o(i.rt_kprintf) for rt_kprintf
    msh.o(i.cmd_ps) refers to cmd.o(i.list_thread) for list_thread
    msh.o(i.msh_auto_complete) refers to msh.o(i.msh_help) for msh_help
    msh.o(i.msh_auto_complete) refers to strlen.o(.text) for strlen
    msh.o(i.msh_auto_complete) refers to strncmp.o(.text) for strncmp
    msh.o(i.msh_auto_complete) refers to msh.o(i.str_common) for str_common
    msh.o(i.msh_auto_complete) refers to kservice.o(i.rt_kprintf) for rt_kprintf
    msh.o(i.msh_auto_complete) refers to kservice.o(i.rt_strncpy) for rt_strncpy
    msh.o(i.msh_auto_complete) refers to shell.o(.data) for _syscall_table_begin
    msh.o(i.msh_exec) refers to msh.o(i._msh_exec_cmd) for _msh_exec_cmd
    msh.o(i.msh_exec) refers to kservice.o(i.rt_kprintf) for rt_kprintf
    msh.o(i.msh_get_cmd) refers to strncmp.o(.text) for strncmp
    msh.o(i.msh_get_cmd) refers to shell.o(.data) for _syscall_table_begin
    msh.o(i.msh_help) refers to kservice.o(i.rt_kprintf) for rt_kprintf
    msh.o(i.msh_help) refers to shell.o(.data) for _syscall_table_begin
    msh.o(i.msh_split) refers to kservice.o(i.rt_kprintf) for rt_kprintf
    msh.o(FSymTab) refers to msh.o(.rodata.name) for __fsym_help_name
    msh.o(FSymTab) refers to msh.o(i.msh_help) for msh_help
    msh.o(FSymTab) refers to msh.o(i.cmd_ps) for cmd_ps
    msh.o(FSymTab) refers to msh.o(i.cmd_free) for cmd_free
    msh_parse.o(i.msh_ishex) refers to tolower.o(.text) for tolower
    msh_parse.o(i.msh_ishex) refers to ctype_o.o(.text) for __rt_ctype_table
    msh_parse.o(i.msh_isint) refers to ctype_o.o(.text) for __rt_ctype_table
    msh_parse.o(i.msh_strtohex) refers to tolower.o(.text) for tolower
    msh_parse.o(i.msh_strtohex) refers to ctype_o.o(.text) for __rt_ctype_table
    shell.o(i.finsh_get_echo) refers to shell.o(.data) for shell
    shell.o(i.finsh_get_prompt) refers to strncpy.o(.text) for strncpy
    shell.o(i.finsh_get_prompt) refers to strcpy.o(.text) for strcpy
    shell.o(i.finsh_get_prompt) refers to strcat.o(.text) for strcat
    shell.o(i.finsh_get_prompt) refers to shell.o(.data) for shell
    shell.o(i.finsh_get_prompt) refers to shell.o(.bss) for finsh_prompt
    shell.o(i.finsh_get_prompt_mode) refers to shell.o(.data) for shell
    shell.o(i.finsh_getchar) refers to board.o(i.rt_hw_console_getchar) for rt_hw_console_getchar
    shell.o(i.finsh_set_echo) refers to shell.o(.data) for shell
    shell.o(i.finsh_set_prompt) refers to kservice.o(i.rt_free) for rt_free
    shell.o(i.finsh_set_prompt) refers to strlen.o(.text) for strlen
    shell.o(i.finsh_set_prompt) refers to kservice.o(i.rt_malloc) for rt_malloc
    shell.o(i.finsh_set_prompt) refers to strcpy.o(.text) for strcpy
    shell.o(i.finsh_set_prompt) refers to shell.o(.data) for finsh_prompt_custom
    shell.o(i.finsh_set_prompt_mode) refers to shell.o(.data) for shell
    shell.o(i.finsh_system_function_init) refers to shell.o(.data) for _syscall_table_begin
    shell.o(i.finsh_system_init) refers to shell.o(i.finsh_system_function_init) for finsh_system_function_init
    shell.o(i.finsh_system_init) refers to kservice.o(i.rt_calloc) for rt_calloc
    shell.o(i.finsh_system_init) refers to kservice.o(i.rt_kprintf) for rt_kprintf
    shell.o(i.finsh_system_init) refers to thread.o(i.rt_thread_create) for rt_thread_create
    shell.o(i.finsh_system_init) refers to ipc.o(i.rt_sem_init) for rt_sem_init
    shell.o(i.finsh_system_init) refers to shell.o(i.finsh_set_prompt_mode) for finsh_set_prompt_mode
    shell.o(i.finsh_system_init) refers to thread.o(i.rt_thread_startup) for rt_thread_startup
    shell.o(i.finsh_system_init) refers to shell.o(.data) for shell
    shell.o(i.finsh_system_init) refers to shell.o(i.finsh_thread_entry) for finsh_thread_entry
    shell.o(i.finsh_thread_entry) refers to shell.o(i.finsh_get_prompt) for finsh_get_prompt
    shell.o(i.finsh_thread_entry) refers to kservice.o(i.rt_kprintf) for rt_kprintf
    shell.o(i.finsh_thread_entry) refers to shell.o(i.finsh_getchar) for finsh_getchar
    shell.o(i.finsh_thread_entry) refers to shell.o(i.shell_auto_complete) for shell_auto_complete
    shell.o(i.finsh_thread_entry) refers to strlen.o(.text) for strlen
    shell.o(i.finsh_thread_entry) refers to kservice.o(i.rt_memmove) for rt_memmove
    shell.o(i.finsh_thread_entry) refers to msh.o(i.msh_exec) for msh_exec
    shell.o(i.finsh_thread_entry) refers to kservice.o(i.rt_memset) for rt_memset
    shell.o(i.finsh_thread_entry) refers to shell.o(.data) for shell
    shell.o(i.shell_auto_complete) refers to kservice.o(i.rt_kprintf) for rt_kprintf
    shell.o(i.shell_auto_complete) refers to msh.o(i.msh_auto_complete) for msh_auto_complete
    shell.o(i.shell_auto_complete) refers to shell.o(i.finsh_get_prompt) for finsh_get_prompt
    shell.o(.rti_fn.6) refers to shell.o(i.finsh_system_init) for finsh_system_init
    log.o(i.__softfp_log) refers (Special) to iusefp.o(.text) for __I$use$fp
    log.o(i.__softfp_log) refers to log.o(i.log) for log
    log.o(i.log) refers (Special) to iusefp.o(.text) for __I$use$fp
    log.o(i.log) refers to dunder.o(i.__mathlib_dbl_infnan) for __mathlib_dbl_infnan
    log.o(i.log) refers to errno.o(i.__set_errno) for __set_errno
    log.o(i.log) refers to dunder.o(i.__mathlib_dbl_invalid) for __mathlib_dbl_invalid
    log.o(i.log) refers to dunder.o(i.__mathlib_dbl_divzero) for __mathlib_dbl_divzero
    log.o(i.log) refers to dscalb.o(.text) for __ARM_scalbn
    log.o(i.log) refers to dadd.o(.text) for __aeabi_dsub
    log.o(i.log) refers to cdcmple.o(.text) for __aeabi_cdcmpeq
    log.o(i.log) refers to dflti.o(.text) for __aeabi_i2d
    log.o(i.log) refers to dmul.o(.text) for __aeabi_dmul
    log.o(i.log) refers to ddiv.o(.text) for __aeabi_ddiv
    log.o(i.log) refers to poly.o(i.__kernel_poly) for __kernel_poly
    log.o(i.log) refers to qnan.o(.constdata) for __mathlib_zero
    log.o(i.log) refers to log.o(.constdata) for .constdata
    log.o(.constdata) refers (Special) to iusefp.o(.text) for __I$use$fp
    log_x.o(i.____softfp_log$lsc) refers (Special) to iusefp.o(.text) for __I$use$fp
    log_x.o(i.____softfp_log$lsc) refers to log_x.o(i.__log$lsc) for __log$lsc
    log_x.o(i.__log$lsc) refers (Special) to iusefp.o(.text) for __I$use$fp
    log_x.o(i.__log$lsc) refers to dunder.o(i.__mathlib_dbl_infnan) for __mathlib_dbl_infnan
    log_x.o(i.__log$lsc) refers to errno.o(i.__set_errno) for __set_errno
    log_x.o(i.__log$lsc) refers to dscalb.o(.text) for __ARM_scalbn
    log_x.o(i.__log$lsc) refers to dadd.o(.text) for __aeabi_dsub
    log_x.o(i.__log$lsc) refers to cdcmple.o(.text) for __aeabi_cdcmpeq
    log_x.o(i.__log$lsc) refers to dflti.o(.text) for __aeabi_i2d
    log_x.o(i.__log$lsc) refers to dmul.o(.text) for __aeabi_dmul
    log_x.o(i.__log$lsc) refers to ddiv.o(.text) for __aeabi_ddiv
    log_x.o(i.__log$lsc) refers to poly.o(i.__kernel_poly) for __kernel_poly
    log_x.o(i.__log$lsc) refers to qnan.o(.constdata) for __mathlib_zero
    log_x.o(i.__log$lsc) refers to log_x.o(.constdata) for .constdata
    log_x.o(.constdata) refers (Special) to iusefp.o(.text) for __I$use$fp
    entry.o(.ARM.Collect$$$$00000000) refers (Special) to entry10a.o(.ARM.Collect$$$$0000000D) for __rt_final_cpp
    entry.o(.ARM.Collect$$$$00000000) refers (Special) to entry11a.o(.ARM.Collect$$$$0000000F) for __rt_final_exit
    entry.o(.ARM.Collect$$$$00000000) refers (Special) to entry7b.o(.ARM.Collect$$$$00000008) for _main_clock
    entry.o(.ARM.Collect$$$$00000000) refers (Special) to entry8b.o(.ARM.Collect$$$$0000000A) for _main_cpp_init
    entry.o(.ARM.Collect$$$$00000000) refers (Special) to entry9a.o(.ARM.Collect$$$$0000000B) for _main_init
    entry.o(.ARM.Collect$$$$00000000) refers (Special) to entry5.o(.ARM.Collect$$$$00000004) for _main_scatterload
    entry.o(.ARM.Collect$$$$00000000) refers (Special) to entry2.o(.ARM.Collect$$$$00000001) for _main_stk
    uldiv.o(.text) refers to llushr.o(.text) for __aeabi_llsr
    uldiv.o(.text) refers to llshl.o(.text) for __aeabi_llsl
    ctype_o.o(.text) refers to ctype_o.o(.constdata) for .constdata
    ctype_o.o(.constdata) refers to ctype_o.o(.constdata) for __ctype_table
    isalnum_o.o(.text) refers to ctype_o.o(.text) for __rt_ctype_table
    isalpha_o.o(.text) refers to ctype_o.o(.text) for __rt_ctype_table
    isblank_o.o(.text) refers to ctype_o.o(.constdata) for __ctype_table
    iscntrl_o.o(.text) refers to ctype_o.o(.text) for __rt_ctype_table
    isdigit_o.o(.text) refers to ctype_o.o(.text) for __rt_ctype_table
    isgraph_o.o(.text) refers to ctype_o.o(.text) for __rt_ctype_table
    islower_o.o(.text) refers to ctype_o.o(.text) for __rt_ctype_table
    isprint_o.o(.text) refers to ctype_o.o(.text) for __rt_ctype_table
    ispunct_o.o(.text) refers to ctype_o.o(.text) for __rt_ctype_table
    isspace_o.o(.text) refers to ctype_o.o(.text) for __rt_ctype_table
    isupper_o.o(.text) refers to ctype_o.o(.text) for __rt_ctype_table
    isxdigit_o.o(.text) refers to ctype_o.o(.text) for __rt_ctype_table
    atoi.o(.text) refers to errno.o(i.__aeabi_errno_addr) for __aeabi_errno_addr
    atoi.o(.text) refers to strtol.o(.text) for strtol
    fadd.o(.text) refers (Special) to iusefp.o(.text) for __I$use$fp
    fadd.o(.text) refers to fepilogue.o(.text) for _float_epilogue
    fmul.o(.text) refers (Special) to iusefp.o(.text) for __I$use$fp
    fdiv.o(.text) refers (Special) to iusefp.o(.text) for __I$use$fp
    fdiv.o(.text) refers to fepilogue.o(.text) for _float_round
    dadd.o(.text) refers (Special) to iusefp.o(.text) for __I$use$fp
    dadd.o(.text) refers to llshl.o(.text) for __aeabi_llsl
    dadd.o(.text) refers to llsshr.o(.text) for __aeabi_lasr
    dadd.o(.text) refers to depilogue.o(.text) for _double_epilogue
    dmul.o(.text) refers (Special) to iusefp.o(.text) for __I$use$fp
    dmul.o(.text) refers to depilogue.o(.text) for _double_epilogue
    ddiv.o(.text) refers (Special) to iusefp.o(.text) for __I$use$fp
    ddiv.o(.text) refers to depilogue.o(.text) for _double_round
    fflti.o(.text) refers (Special) to iusefp.o(.text) for __I$use$fp
    fflti.o(.text) refers to fepilogue.o(.text) for _float_epilogue
    ffltui.o(.text) refers (Special) to iusefp.o(.text) for __I$use$fp
    ffltui.o(.text) refers to fepilogue.o(.text) for _float_epilogue
    dflti.o(.text) refers (Special) to iusefp.o(.text) for __I$use$fp
    dflti.o(.text) refers to depilogue.o(.text) for _double_epilogue
    dfltui.o(.text) refers (Special) to iusefp.o(.text) for __I$use$fp
    dfltui.o(.text) refers to depilogue.o(.text) for _double_epilogue
    ffixi.o(.text) refers (Special) to iusefp.o(.text) for __I$use$fp
    ffixui.o(.text) refers (Special) to iusefp.o(.text) for __I$use$fp
    f2d.o(.text) refers (Special) to iusefp.o(.text) for __I$use$fp
    d2f.o(.text) refers (Special) to iusefp.o(.text) for __I$use$fp
    d2f.o(.text) refers to fepilogue.o(.text) for _float_round
    cfcmple.o(.text) refers (Special) to iusefp.o(.text) for __I$use$fp
    cfrcmple.o(.text) refers (Special) to iusefp.o(.text) for __I$use$fp
    dunder.o(i.__mathlib_dbl_divzero) refers to ddiv.o(.text) for __aeabi_ddiv
    dunder.o(i.__mathlib_dbl_infnan) refers to dscalb.o(.text) for __ARM_scalbn
    dunder.o(i.__mathlib_dbl_infnan2) refers to dadd.o(.text) for __aeabi_dadd
    dunder.o(i.__mathlib_dbl_invalid) refers to ddiv.o(.text) for __aeabi_ddiv
    dunder.o(i.__mathlib_dbl_overflow) refers to dscalb.o(.text) for __ARM_scalbn
    dunder.o(i.__mathlib_dbl_posinfnan) refers to dmul.o(.text) for __aeabi_dmul
    dunder.o(i.__mathlib_dbl_underflow) refers to dscalb.o(.text) for __ARM_scalbn
    poly.o(i.__kernel_poly) refers (Special) to iusefp.o(.text) for __I$use$fp
    poly.o(i.__kernel_poly) refers to dmul.o(.text) for __aeabi_dmul
    poly.o(i.__kernel_poly) refers to dadd.o(.text) for __aeabi_dadd
    qnan.o(.constdata) refers (Special) to iusefp.o(.text) for __I$use$fp
    entry2.o(.ARM.Collect$$$$00000001) refers to entry2.o(.ARM.Collect$$$$00002712) for __lit__00000000
    entry2.o(.ARM.Collect$$$$00002712) refers to startup_stm32f10x_md.o(STACK) for __initial_sp
    entry2.o(__vectab_stack_and_reset_area) refers to startup_stm32f10x_md.o(STACK) for __initial_sp
    entry2.o(__vectab_stack_and_reset_area) refers to entry.o(.ARM.Collect$$$$00000000) for __main
    entry5.o(.ARM.Collect$$$$00000004) refers to init.o(.text) for __scatterload
    entry9a.o(.ARM.Collect$$$$0000000B) refers to components.o(i.$Sub$$main) for main
    entry9b.o(.ARM.Collect$$$$0000000C) refers to components.o(i.$Sub$$main) for main
    errno.o(i.__aeabi_errno_addr) refers to errno.o(.data) for .data
    errno.o(i.__read_errno) refers to errno.o(.data) for .data
    errno.o(i.__set_errno) refers to errno.o(.data) for .data
    strtol.o(.text) refers to ctype_o.o(.text) for __rt_ctype_table
    strtol.o(.text) refers to _strtoul.o(.text) for _strtoul
    strtol.o(.text) refers to errno.o(i.__aeabi_errno_addr) for __aeabi_errno_addr
    depilogue.o(.text) refers to llshl.o(.text) for __aeabi_llsl
    depilogue.o(.text) refers to llushr.o(.text) for __aeabi_llsr
    init.o(.text) refers to entry5.o(.ARM.Collect$$$$00000004) for __main_after_scatterload
    _strtoul.o(.text) refers to _chval.o(.text) for _chval
    _strtoul.o(.text) refers to errno.o(i.__aeabi_errno_addr) for __aeabi_errno_addr


==============================================================================

Removing Unused input sections from the image.

    Removing app.o(i.led_gpio_init), (56 bytes).
    Removing app.o(i.led_init), (56 bytes).
    Removing app.o(i.led_task), (20 bytes).
    Removing app.o(i.led_toggle), (20 bytes).
    Removing delay.o(i.function_address_passing), (12 bytes).
    Removing delay.o(i.tim_delay_ms), (40 bytes).
    Removing delay.o(i.tim_delay_us), (38 bytes).
    Removing delay.o(i.tim_get_ms), (20 bytes).
    Removing delay.o(i.tim_get_us), (18 bytes).
    Removing delay.o(i.tim_now), (92 bytes).
    Removing usart.o(i.USART_Send_Data), (68 bytes).
    Removing usart.o(i.fputc), (36 bytes).
    Removing bq769.o(i.BQ769X0_CellBalanceControl), (116 bytes).
    Removing bq769.o(i.BQ769X0_ControlDSGOrCHG), (48 bytes).
    Removing bq769.o(i.BQ769X0_LoadDetect), (44 bytes).
    Removing bq769.o(i.BQ769X0_OCDDelaySet), (36 bytes).
    Removing bq769.o(i.BQ769X0_OVDelaySet), (36 bytes).
    Removing bq769.o(i.BQ769X0_OVPThresholdSet), (72 bytes).
    Removing bq769.o(i.BQ769X0_ReadRegisterByte), (84 bytes).
    Removing bq769.o(i.BQ769X0_SCDDelaySet), (36 bytes).
    Removing bq769.o(i.BQ769X0_UVDelaySet), (36 bytes).
    Removing bq769.o(i.BQ769X0_UVPThresholdSet), (68 bytes).
    Removing bq769.o(i.BQ769X0_UpdateDieTemp), (192 bytes).
    Removing bq769.o(i.BQ769X0_WriteRegisterByte), (76 bytes).
    Removing bq769.o(i.BQ769X0_WriteRegisterWordWithCRC), (120 bytes).
    Removing bms_control.o(i.BMS_HalCtrlCellsBalance), (16 bytes).
    Removing bms_control.o(i.BMS_HalCtrlCharge), (14 bytes).
    Removing bms_control.o(i.BMS_HalCtrlDischarge), (14 bytes).
    Removing bms_control.o(i.BMS_HalCtrlSleep), (8 bytes).
    Removing bms_control.o(i.BMS_HalCtrlWakeup), (8 bytes).
    Removing bms_monitor.o(i.BMS_MonitorStateBatCurrent), (24 bytes).
    Removing bms_monitor.o(i.BMS_MonitorStateCellTemp), (24 bytes).
    Removing bms_monitor.o(i.BMS_MonitorStateVoltage), (24 bytes).
    Removing misc.o(i.NVIC_SetVectorTable), (20 bytes).
    Removing misc.o(i.NVIC_SystemLPConfig), (32 bytes).
    Removing misc.o(i.SysTick_CLKSourceConfig), (40 bytes).
    Removing stm32f10x_adc.o(i.ADC_AnalogWatchdogCmd), (20 bytes).
    Removing stm32f10x_adc.o(i.ADC_AnalogWatchdogSingleChannelConfig), (16 bytes).
    Removing stm32f10x_adc.o(i.ADC_AnalogWatchdogThresholdsConfig), (6 bytes).
    Removing stm32f10x_adc.o(i.ADC_AutoInjectedConvCmd), (22 bytes).
    Removing stm32f10x_adc.o(i.ADC_ClearFlag), (6 bytes).
    Removing stm32f10x_adc.o(i.ADC_ClearITPendingBit), (10 bytes).
    Removing stm32f10x_adc.o(i.ADC_Cmd), (22 bytes).
    Removing stm32f10x_adc.o(i.ADC_DMACmd), (22 bytes).
    Removing stm32f10x_adc.o(i.ADC_DeInit), (92 bytes).
    Removing stm32f10x_adc.o(i.ADC_DiscModeChannelCountConfig), (24 bytes).
    Removing stm32f10x_adc.o(i.ADC_DiscModeCmd), (22 bytes).
    Removing stm32f10x_adc.o(i.ADC_ExternalTrigConvCmd), (22 bytes).
    Removing stm32f10x_adc.o(i.ADC_ExternalTrigInjectedConvCmd), (22 bytes).
    Removing stm32f10x_adc.o(i.ADC_ExternalTrigInjectedConvConfig), (16 bytes).
    Removing stm32f10x_adc.o(i.ADC_GetCalibrationStatus), (20 bytes).
    Removing stm32f10x_adc.o(i.ADC_GetConversionValue), (8 bytes).
    Removing stm32f10x_adc.o(i.ADC_GetDualModeConversionValue), (12 bytes).
    Removing stm32f10x_adc.o(i.ADC_GetFlagStatus), (18 bytes).
    Removing stm32f10x_adc.o(i.ADC_GetITStatus), (36 bytes).
    Removing stm32f10x_adc.o(i.ADC_GetInjectedConversionValue), (28 bytes).
    Removing stm32f10x_adc.o(i.ADC_GetResetCalibrationStatus), (20 bytes).
    Removing stm32f10x_adc.o(i.ADC_GetSoftwareStartConvStatus), (20 bytes).
    Removing stm32f10x_adc.o(i.ADC_GetSoftwareStartInjectedConvCmdStatus), (20 bytes).
    Removing stm32f10x_adc.o(i.ADC_ITConfig), (24 bytes).
    Removing stm32f10x_adc.o(i.ADC_Init), (80 bytes).
    Removing stm32f10x_adc.o(i.ADC_InjectedChannelConfig), (130 bytes).
    Removing stm32f10x_adc.o(i.ADC_InjectedDiscModeCmd), (22 bytes).
    Removing stm32f10x_adc.o(i.ADC_InjectedSequencerLengthConfig), (24 bytes).
    Removing stm32f10x_adc.o(i.ADC_RegularChannelConfig), (184 bytes).
    Removing stm32f10x_adc.o(i.ADC_ResetCalibration), (10 bytes).
    Removing stm32f10x_adc.o(i.ADC_SetInjectedOffset), (20 bytes).
    Removing stm32f10x_adc.o(i.ADC_SoftwareStartConvCmd), (22 bytes).
    Removing stm32f10x_adc.o(i.ADC_SoftwareStartInjectedConvCmd), (22 bytes).
    Removing stm32f10x_adc.o(i.ADC_StartCalibration), (10 bytes).
    Removing stm32f10x_adc.o(i.ADC_StructInit), (18 bytes).
    Removing stm32f10x_adc.o(i.ADC_TempSensorVrefintCmd), (36 bytes).
    Removing stm32f10x_bkp.o(i.BKP_ClearFlag), (20 bytes).
    Removing stm32f10x_bkp.o(i.BKP_ClearITPendingBit), (20 bytes).
    Removing stm32f10x_bkp.o(i.BKP_DeInit), (16 bytes).
    Removing stm32f10x_bkp.o(i.BKP_GetFlagStatus), (12 bytes).
    Removing stm32f10x_bkp.o(i.BKP_GetITStatus), (12 bytes).
    Removing stm32f10x_bkp.o(i.BKP_ITConfig), (12 bytes).
    Removing stm32f10x_bkp.o(i.BKP_RTCOutputConfig), (28 bytes).
    Removing stm32f10x_bkp.o(i.BKP_ReadBackupRegister), (28 bytes).
    Removing stm32f10x_bkp.o(i.BKP_SetRTCCalibrationValue), (28 bytes).
    Removing stm32f10x_bkp.o(i.BKP_TamperPinCmd), (12 bytes).
    Removing stm32f10x_bkp.o(i.BKP_TamperPinLevelConfig), (12 bytes).
    Removing stm32f10x_bkp.o(i.BKP_WriteBackupRegister), (28 bytes).
    Removing stm32f10x_can.o(i.CAN_CancelTransmit), (48 bytes).
    Removing stm32f10x_can.o(i.CAN_ClearFlag), (56 bytes).
    Removing stm32f10x_can.o(i.CAN_ClearITPendingBit), (168 bytes).
    Removing stm32f10x_can.o(i.CAN_DBGFreeze), (22 bytes).
    Removing stm32f10x_can.o(i.CAN_DeInit), (56 bytes).
    Removing stm32f10x_can.o(i.CAN_FIFORelease), (22 bytes).
    Removing stm32f10x_can.o(i.CAN_FilterInit), (264 bytes).
    Removing stm32f10x_can.o(i.CAN_GetFlagStatus), (120 bytes).
    Removing stm32f10x_can.o(i.CAN_GetITStatus), (288 bytes).
    Removing stm32f10x_can.o(i.CAN_GetLSBTransmitErrorCounter), (12 bytes).
    Removing stm32f10x_can.o(i.CAN_GetLastErrorCode), (12 bytes).
    Removing stm32f10x_can.o(i.CAN_GetReceiveErrorCounter), (10 bytes).
    Removing stm32f10x_can.o(i.CAN_ITConfig), (18 bytes).
    Removing stm32f10x_can.o(i.CAN_Init), (276 bytes).
    Removing stm32f10x_can.o(i.CAN_MessagePending), (30 bytes).
    Removing stm32f10x_can.o(i.CAN_OperatingModeRequest), (162 bytes).
    Removing stm32f10x_can.o(i.CAN_Receive), (240 bytes).
    Removing stm32f10x_can.o(i.CAN_SlaveStartBank), (52 bytes).
    Removing stm32f10x_can.o(i.CAN_Sleep), (30 bytes).
    Removing stm32f10x_can.o(i.CAN_StructInit), (32 bytes).
    Removing stm32f10x_can.o(i.CAN_TTComModeCmd), (118 bytes).
    Removing stm32f10x_can.o(i.CAN_Transmit), (294 bytes).
    Removing stm32f10x_can.o(i.CAN_TransmitStatus), (160 bytes).
    Removing stm32f10x_can.o(i.CAN_WakeUp), (48 bytes).
    Removing stm32f10x_can.o(i.CheckITStatus), (18 bytes).
    Removing stm32f10x_cec.o(i.CEC_ClearFlag), (36 bytes).
    Removing stm32f10x_cec.o(i.CEC_ClearITPendingBit), (36 bytes).
    Removing stm32f10x_cec.o(i.CEC_Cmd), (32 bytes).
    Removing stm32f10x_cec.o(i.CEC_DeInit), (22 bytes).
    Removing stm32f10x_cec.o(i.CEC_EndOfMessageCmd), (12 bytes).
    Removing stm32f10x_cec.o(i.CEC_GetFlagStatus), (48 bytes).
    Removing stm32f10x_cec.o(i.CEC_GetITStatus), (40 bytes).
    Removing stm32f10x_cec.o(i.CEC_ITConfig), (12 bytes).
    Removing stm32f10x_cec.o(i.CEC_Init), (32 bytes).
    Removing stm32f10x_cec.o(i.CEC_OwnAddressConfig), (12 bytes).
    Removing stm32f10x_cec.o(i.CEC_ReceiveDataByte), (12 bytes).
    Removing stm32f10x_cec.o(i.CEC_SendDataByte), (12 bytes).
    Removing stm32f10x_cec.o(i.CEC_SetPrescaler), (12 bytes).
    Removing stm32f10x_cec.o(i.CEC_StartOfMessage), (12 bytes).
    Removing stm32f10x_crc.o(i.CRC_CalcBlockCRC), (36 bytes).
    Removing stm32f10x_crc.o(i.CRC_CalcCRC), (16 bytes).
    Removing stm32f10x_crc.o(i.CRC_GetCRC), (12 bytes).
    Removing stm32f10x_crc.o(i.CRC_GetIDRegister), (12 bytes).
    Removing stm32f10x_crc.o(i.CRC_ResetDR), (12 bytes).
    Removing stm32f10x_crc.o(i.CRC_SetIDRegister), (12 bytes).
    Removing stm32f10x_dac.o(i.DAC_Cmd), (40 bytes).
    Removing stm32f10x_dac.o(i.DAC_DMACmd), (44 bytes).
    Removing stm32f10x_dac.o(i.DAC_DeInit), (22 bytes).
    Removing stm32f10x_dac.o(i.DAC_DualSoftwareTriggerCmd), (36 bytes).
    Removing stm32f10x_dac.o(i.DAC_GetDataOutputValue), (36 bytes).
    Removing stm32f10x_dac.o(i.DAC_Init), (52 bytes).
    Removing stm32f10x_dac.o(i.DAC_SetChannel1Data), (32 bytes).
    Removing stm32f10x_dac.o(i.DAC_SetChannel2Data), (32 bytes).
    Removing stm32f10x_dac.o(i.DAC_SetDualChannelData), (36 bytes).
    Removing stm32f10x_dac.o(i.DAC_SoftwareTriggerCmd), (44 bytes).
    Removing stm32f10x_dac.o(i.DAC_StructInit), (12 bytes).
    Removing stm32f10x_dac.o(i.DAC_WaveGenerationCmd), (40 bytes).
    Removing stm32f10x_dbgmcu.o(i.DBGMCU_Config), (32 bytes).
    Removing stm32f10x_dbgmcu.o(i.DBGMCU_GetDEVID), (16 bytes).
    Removing stm32f10x_dbgmcu.o(i.DBGMCU_GetREVID), (12 bytes).
    Removing stm32f10x_dma.o(i.DMA_ClearFlag), (28 bytes).
    Removing stm32f10x_dma.o(i.DMA_ClearITPendingBit), (28 bytes).
    Removing stm32f10x_dma.o(i.DMA_Cmd), (24 bytes).
    Removing stm32f10x_dma.o(i.DMA_DeInit), (332 bytes).
    Removing stm32f10x_dma.o(i.DMA_GetCurrDataCounter), (8 bytes).
    Removing stm32f10x_dma.o(i.DMA_GetFlagStatus), (44 bytes).
    Removing stm32f10x_dma.o(i.DMA_GetITStatus), (44 bytes).
    Removing stm32f10x_dma.o(i.DMA_ITConfig), (18 bytes).
    Removing stm32f10x_dma.o(i.DMA_Init), (60 bytes).
    Removing stm32f10x_dma.o(i.DMA_SetCurrDataCounter), (4 bytes).
    Removing stm32f10x_dma.o(i.DMA_StructInit), (26 bytes).
    Removing stm32f10x_exti.o(i.EXTI_ClearFlag), (12 bytes).
    Removing stm32f10x_exti.o(i.EXTI_DeInit), (36 bytes).
    Removing stm32f10x_exti.o(i.EXTI_GenerateSWInterrupt), (16 bytes).
    Removing stm32f10x_exti.o(i.EXTI_GetFlagStatus), (24 bytes).
    Removing stm32f10x_exti.o(i.EXTI_Init), (148 bytes).
    Removing stm32f10x_exti.o(i.EXTI_StructInit), (16 bytes).
    Removing stm32f10x_flash.o(i.FLASH_ClearFlag), (12 bytes).
    Removing stm32f10x_flash.o(i.FLASH_EnableWriteProtection), (196 bytes).
    Removing stm32f10x_flash.o(i.FLASH_EraseAllBank1Pages), (72 bytes).
    Removing stm32f10x_flash.o(i.FLASH_EraseAllPages), (72 bytes).
    Removing stm32f10x_flash.o(i.FLASH_EraseOptionBytes), (168 bytes).
    Removing stm32f10x_flash.o(i.FLASH_ErasePage), (76 bytes).
    Removing stm32f10x_flash.o(i.FLASH_GetBank1Status), (52 bytes).
    Removing stm32f10x_flash.o(i.FLASH_GetFlagStatus), (48 bytes).
    Removing stm32f10x_flash.o(i.FLASH_GetPrefetchBufferStatus), (24 bytes).
    Removing stm32f10x_flash.o(i.FLASH_GetReadOutProtectionStatus), (24 bytes).
    Removing stm32f10x_flash.o(i.FLASH_GetStatus), (52 bytes).
    Removing stm32f10x_flash.o(i.FLASH_GetUserOptionByte), (12 bytes).
    Removing stm32f10x_flash.o(i.FLASH_GetWriteProtectionOptionByte), (12 bytes).
    Removing stm32f10x_flash.o(i.FLASH_HalfCycleAccessCmd), (28 bytes).
    Removing stm32f10x_flash.o(i.FLASH_ITConfig), (32 bytes).
    Removing stm32f10x_flash.o(i.FLASH_Lock), (20 bytes).
    Removing stm32f10x_flash.o(i.FLASH_LockBank1), (20 bytes).
    Removing stm32f10x_flash.o(i.FLASH_PrefetchBufferCmd), (28 bytes).
    Removing stm32f10x_flash.o(i.FLASH_ProgramHalfWord), (64 bytes).
    Removing stm32f10x_flash.o(i.FLASH_ProgramOptionByteData), (84 bytes).
    Removing stm32f10x_flash.o(i.FLASH_ProgramWord), (108 bytes).
    Removing stm32f10x_flash.o(i.FLASH_ReadOutProtection), (172 bytes).
    Removing stm32f10x_flash.o(i.FLASH_SetLatency), (24 bytes).
    Removing stm32f10x_flash.o(i.FLASH_Unlock), (24 bytes).
    Removing stm32f10x_flash.o(i.FLASH_UnlockBank1), (24 bytes).
    Removing stm32f10x_flash.o(i.FLASH_UserOptionByteConfig), (104 bytes).
    Removing stm32f10x_flash.o(i.FLASH_WaitForLastBank1Operation), (38 bytes).
    Removing stm32f10x_flash.o(i.FLASH_WaitForLastOperation), (38 bytes).
    Removing stm32f10x_fsmc.o(i.FSMC_ClearFlag), (64 bytes).
    Removing stm32f10x_fsmc.o(i.FSMC_ClearITPendingBit), (72 bytes).
    Removing stm32f10x_fsmc.o(i.FSMC_GetECC), (28 bytes).
    Removing stm32f10x_fsmc.o(i.FSMC_GetFlagStatus), (56 bytes).
    Removing stm32f10x_fsmc.o(i.FSMC_GetITStatus), (68 bytes).
    Removing stm32f10x_fsmc.o(i.FSMC_ITConfig), (128 bytes).
    Removing stm32f10x_fsmc.o(i.FSMC_NANDCmd), (92 bytes).
    Removing stm32f10x_fsmc.o(i.FSMC_NANDDeInit), (68 bytes).
    Removing stm32f10x_fsmc.o(i.FSMC_NANDECCCmd), (92 bytes).
    Removing stm32f10x_fsmc.o(i.FSMC_NANDInit), (136 bytes).
    Removing stm32f10x_fsmc.o(i.FSMC_NANDStructInit), (54 bytes).
    Removing stm32f10x_fsmc.o(i.FSMC_NORSRAMCmd), (52 bytes).
    Removing stm32f10x_fsmc.o(i.FSMC_NORSRAMDeInit), (54 bytes).
    Removing stm32f10x_fsmc.o(i.FSMC_NORSRAMInit), (230 bytes).
    Removing stm32f10x_fsmc.o(i.FSMC_NORSRAMStructInit), (114 bytes).
    Removing stm32f10x_fsmc.o(i.FSMC_PCCARDCmd), (48 bytes).
    Removing stm32f10x_fsmc.o(i.FSMC_PCCARDDeInit), (40 bytes).
    Removing stm32f10x_fsmc.o(i.FSMC_PCCARDInit), (132 bytes).
    Removing stm32f10x_fsmc.o(i.FSMC_PCCARDStructInit), (60 bytes).
    Removing stm32f10x_gpio.o(i.GPIO_AFIODeInit), (20 bytes).
    Removing stm32f10x_gpio.o(i.GPIO_DeInit), (200 bytes).
    Removing stm32f10x_gpio.o(i.GPIO_ETH_MediaInterfaceConfig), (12 bytes).
    Removing stm32f10x_gpio.o(i.GPIO_EXTILineConfig), (64 bytes).
    Removing stm32f10x_gpio.o(i.GPIO_EventOutputCmd), (12 bytes).
    Removing stm32f10x_gpio.o(i.GPIO_EventOutputConfig), (32 bytes).
    Removing stm32f10x_gpio.o(i.GPIO_PinLockConfig), (18 bytes).
    Removing stm32f10x_gpio.o(i.GPIO_PinRemapConfig), (144 bytes).
    Removing stm32f10x_gpio.o(i.GPIO_ReadInputData), (8 bytes).
    Removing stm32f10x_gpio.o(i.GPIO_ReadOutputData), (8 bytes).
    Removing stm32f10x_gpio.o(i.GPIO_ReadOutputDataBit), (18 bytes).
    Removing stm32f10x_gpio.o(i.GPIO_ResetBits), (4 bytes).
    Removing stm32f10x_gpio.o(i.GPIO_StructInit), (16 bytes).
    Removing stm32f10x_gpio.o(i.GPIO_Write), (4 bytes).
    Removing stm32f10x_i2c.o(i.I2C_ARPCmd), (24 bytes).
    Removing stm32f10x_i2c.o(i.I2C_AcknowledgeConfig), (24 bytes).
    Removing stm32f10x_i2c.o(i.I2C_CalculatePEC), (24 bytes).
    Removing stm32f10x_i2c.o(i.I2C_CheckEvent), (42 bytes).
    Removing stm32f10x_i2c.o(i.I2C_ClearFlag), (12 bytes).
    Removing stm32f10x_i2c.o(i.I2C_ClearITPendingBit), (12 bytes).
    Removing stm32f10x_i2c.o(i.I2C_Cmd), (24 bytes).
    Removing stm32f10x_i2c.o(i.I2C_DMACmd), (24 bytes).
    Removing stm32f10x_i2c.o(i.I2C_DMALastTransferCmd), (24 bytes).
    Removing stm32f10x_i2c.o(i.I2C_DeInit), (56 bytes).
    Removing stm32f10x_i2c.o(i.I2C_DualAddressCmd), (24 bytes).
    Removing stm32f10x_i2c.o(i.I2C_FastModeDutyCycleConfig), (28 bytes).
    Removing stm32f10x_i2c.o(i.I2C_GeneralCallCmd), (24 bytes).
    Removing stm32f10x_i2c.o(i.I2C_GenerateSTART), (24 bytes).
    Removing stm32f10x_i2c.o(i.I2C_GenerateSTOP), (24 bytes).
    Removing stm32f10x_i2c.o(i.I2C_GetFlagStatus), (58 bytes).
    Removing stm32f10x_i2c.o(i.I2C_GetITStatus), (38 bytes).
    Removing stm32f10x_i2c.o(i.I2C_GetLastEvent), (26 bytes).
    Removing stm32f10x_i2c.o(i.I2C_GetPEC), (8 bytes).
    Removing stm32f10x_i2c.o(i.I2C_ITConfig), (18 bytes).
    Removing stm32f10x_i2c.o(i.I2C_Init), (236 bytes).
    Removing stm32f10x_i2c.o(i.I2C_NACKPositionConfig), (28 bytes).
    Removing stm32f10x_i2c.o(i.I2C_OwnAddress2Config), (22 bytes).
    Removing stm32f10x_i2c.o(i.I2C_PECPositionConfig), (28 bytes).
    Removing stm32f10x_i2c.o(i.I2C_ReadRegister), (22 bytes).
    Removing stm32f10x_i2c.o(i.I2C_ReceiveData), (8 bytes).
    Removing stm32f10x_i2c.o(i.I2C_SMBusAlertConfig), (28 bytes).
    Removing stm32f10x_i2c.o(i.I2C_Send7bitAddress), (18 bytes).
    Removing stm32f10x_i2c.o(i.I2C_SendData), (4 bytes).
    Removing stm32f10x_i2c.o(i.I2C_SoftwareResetCmd), (22 bytes).
    Removing stm32f10x_i2c.o(i.I2C_StretchClockCmd), (24 bytes).
    Removing stm32f10x_i2c.o(i.I2C_StructInit), (30 bytes).
    Removing stm32f10x_i2c.o(i.I2C_TransmitPEC), (24 bytes).
    Removing stm32f10x_iwdg.o(i.IWDG_Enable), (16 bytes).
    Removing stm32f10x_iwdg.o(i.IWDG_GetFlagStatus), (24 bytes).
    Removing stm32f10x_iwdg.o(i.IWDG_ReloadCounter), (16 bytes).
    Removing stm32f10x_iwdg.o(i.IWDG_SetPrescaler), (12 bytes).
    Removing stm32f10x_iwdg.o(i.IWDG_SetReload), (12 bytes).
    Removing stm32f10x_iwdg.o(i.IWDG_WriteAccessCmd), (12 bytes).
    Removing stm32f10x_pwr.o(i.PWR_BackupAccessCmd), (12 bytes).
    Removing stm32f10x_pwr.o(i.PWR_ClearFlag), (20 bytes).
    Removing stm32f10x_pwr.o(i.PWR_DeInit), (22 bytes).
    Removing stm32f10x_pwr.o(i.PWR_EnterSTANDBYMode), (40 bytes).
    Removing stm32f10x_pwr.o(i.PWR_EnterSTOPMode), (64 bytes).
    Removing stm32f10x_pwr.o(i.PWR_GetFlagStatus), (24 bytes).
    Removing stm32f10x_pwr.o(i.PWR_PVDCmd), (12 bytes).
    Removing stm32f10x_pwr.o(i.PWR_PVDLevelConfig), (24 bytes).
    Removing stm32f10x_pwr.o(i.PWR_WakeUpPinCmd), (12 bytes).
    Removing stm32f10x_rcc.o(i.RCC_ADCCLKConfig), (24 bytes).
    Removing stm32f10x_rcc.o(i.RCC_AHBPeriphClockCmd), (32 bytes).
    Removing stm32f10x_rcc.o(i.RCC_APB1PeriphResetCmd), (32 bytes).
    Removing stm32f10x_rcc.o(i.RCC_APB2PeriphResetCmd), (32 bytes).
    Removing stm32f10x_rcc.o(i.RCC_AdjustHSICalibrationValue), (24 bytes).
    Removing stm32f10x_rcc.o(i.RCC_BackupResetCmd), (12 bytes).
    Removing stm32f10x_rcc.o(i.RCC_ClearFlag), (20 bytes).
    Removing stm32f10x_rcc.o(i.RCC_ClearITPendingBit), (12 bytes).
    Removing stm32f10x_rcc.o(i.RCC_ClockSecuritySystemCmd), (12 bytes).
    Removing stm32f10x_rcc.o(i.RCC_DeInit), (76 bytes).
    Removing stm32f10x_rcc.o(i.RCC_GetFlagStatus), (60 bytes).
    Removing stm32f10x_rcc.o(i.RCC_GetITStatus), (24 bytes).
    Removing stm32f10x_rcc.o(i.RCC_GetSYSCLKSource), (16 bytes).
    Removing stm32f10x_rcc.o(i.RCC_HCLKConfig), (24 bytes).
    Removing stm32f10x_rcc.o(i.RCC_HSEConfig), (76 bytes).
    Removing stm32f10x_rcc.o(i.RCC_HSICmd), (12 bytes).
    Removing stm32f10x_rcc.o(i.RCC_ITConfig), (32 bytes).
    Removing stm32f10x_rcc.o(i.RCC_LSEConfig), (52 bytes).
    Removing stm32f10x_rcc.o(i.RCC_LSICmd), (12 bytes).
    Removing stm32f10x_rcc.o(i.RCC_MCOConfig), (12 bytes).
    Removing stm32f10x_rcc.o(i.RCC_PCLK1Config), (24 bytes).
    Removing stm32f10x_rcc.o(i.RCC_PCLK2Config), (24 bytes).
    Removing stm32f10x_rcc.o(i.RCC_PLLCmd), (12 bytes).
    Removing stm32f10x_rcc.o(i.RCC_PLLConfig), (28 bytes).
    Removing stm32f10x_rcc.o(i.RCC_RTCCLKCmd), (12 bytes).
    Removing stm32f10x_rcc.o(i.RCC_RTCCLKConfig), (16 bytes).
    Removing stm32f10x_rcc.o(i.RCC_SYSCLKConfig), (24 bytes).
    Removing stm32f10x_rcc.o(i.RCC_USBCLKConfig), (12 bytes).
    Removing stm32f10x_rcc.o(i.RCC_WaitForHSEStartUp), (56 bytes).
    Removing stm32f10x_rtc.o(i.RTC_ClearFlag), (16 bytes).
    Removing stm32f10x_rtc.o(i.RTC_ClearITPendingBit), (16 bytes).
    Removing stm32f10x_rtc.o(i.RTC_EnterConfigMode), (20 bytes).
    Removing stm32f10x_rtc.o(i.RTC_ExitConfigMode), (20 bytes).
    Removing stm32f10x_rtc.o(i.RTC_GetCounter), (44 bytes).
    Removing stm32f10x_rtc.o(i.RTC_GetDivider), (24 bytes).
    Removing stm32f10x_rtc.o(i.RTC_GetFlagStatus), (24 bytes).
    Removing stm32f10x_rtc.o(i.RTC_GetITStatus), (36 bytes).
    Removing stm32f10x_rtc.o(i.RTC_ITConfig), (32 bytes).
    Removing stm32f10x_rtc.o(i.RTC_SetAlarm), (28 bytes).
    Removing stm32f10x_rtc.o(i.RTC_SetCounter), (28 bytes).
    Removing stm32f10x_rtc.o(i.RTC_SetPrescaler), (32 bytes).
    Removing stm32f10x_rtc.o(i.RTC_WaitForLastTask), (20 bytes).
    Removing stm32f10x_rtc.o(i.RTC_WaitForSynchro), (36 bytes).
    Removing stm32f10x_sdio.o(i.SDIO_CEATAITCmd), (16 bytes).
    Removing stm32f10x_sdio.o(i.SDIO_ClearFlag), (12 bytes).
    Removing stm32f10x_sdio.o(i.SDIO_ClearITPendingBit), (12 bytes).
    Removing stm32f10x_sdio.o(i.SDIO_ClockCmd), (12 bytes).
    Removing stm32f10x_sdio.o(i.SDIO_CmdStructInit), (14 bytes).
    Removing stm32f10x_sdio.o(i.SDIO_CommandCompletionCmd), (12 bytes).
    Removing stm32f10x_sdio.o(i.SDIO_DMACmd), (12 bytes).
    Removing stm32f10x_sdio.o(i.SDIO_DataConfig), (48 bytes).
    Removing stm32f10x_sdio.o(i.SDIO_DataStructInit), (20 bytes).
    Removing stm32f10x_sdio.o(i.SDIO_DeInit), (36 bytes).
    Removing stm32f10x_sdio.o(i.SDIO_GetCommandResponse), (12 bytes).
    Removing stm32f10x_sdio.o(i.SDIO_GetDataCounter), (12 bytes).
    Removing stm32f10x_sdio.o(i.SDIO_GetFIFOCount), (12 bytes).
    Removing stm32f10x_sdio.o(i.SDIO_GetFlagStatus), (24 bytes).
    Removing stm32f10x_sdio.o(i.SDIO_GetITStatus), (24 bytes).
    Removing stm32f10x_sdio.o(i.SDIO_GetPowerState), (16 bytes).
    Removing stm32f10x_sdio.o(i.SDIO_GetResponse), (24 bytes).
    Removing stm32f10x_sdio.o(i.SDIO_ITConfig), (32 bytes).
    Removing stm32f10x_sdio.o(i.SDIO_Init), (48 bytes).
    Removing stm32f10x_sdio.o(i.SDIO_ReadData), (12 bytes).
    Removing stm32f10x_sdio.o(i.SDIO_SendCEATACmd), (12 bytes).
    Removing stm32f10x_sdio.o(i.SDIO_SendCommand), (44 bytes).
    Removing stm32f10x_sdio.o(i.SDIO_SendSDIOSuspendCmd), (12 bytes).
    Removing stm32f10x_sdio.o(i.SDIO_SetPowerState), (12 bytes).
    Removing stm32f10x_sdio.o(i.SDIO_SetSDIOOperation), (12 bytes).
    Removing stm32f10x_sdio.o(i.SDIO_SetSDIOReadWaitMode), (12 bytes).
    Removing stm32f10x_sdio.o(i.SDIO_StartSDIOReadWait), (12 bytes).
    Removing stm32f10x_sdio.o(i.SDIO_StopSDIOReadWait), (12 bytes).
    Removing stm32f10x_sdio.o(i.SDIO_StructInit), (16 bytes).
    Removing stm32f10x_sdio.o(i.SDIO_WriteData), (12 bytes).
    Removing stm32f10x_spi.o(i.I2S_Cmd), (24 bytes).
    Removing stm32f10x_spi.o(i.I2S_Init), (232 bytes).
    Removing stm32f10x_spi.o(i.I2S_StructInit), (20 bytes).
    Removing stm32f10x_spi.o(i.SPI_BiDirectionalLineConfig), (28 bytes).
    Removing stm32f10x_spi.o(i.SPI_CalculateCRC), (24 bytes).
    Removing stm32f10x_spi.o(i.SPI_Cmd), (24 bytes).
    Removing stm32f10x_spi.o(i.SPI_DataSizeConfig), (18 bytes).
    Removing stm32f10x_spi.o(i.SPI_GetCRC), (16 bytes).
    Removing stm32f10x_spi.o(i.SPI_GetCRCPolynomial), (6 bytes).
    Removing stm32f10x_spi.o(i.SPI_I2S_ClearFlag), (6 bytes).
    Removing stm32f10x_spi.o(i.SPI_I2S_ClearITPendingBit), (20 bytes).
    Removing stm32f10x_spi.o(i.SPI_I2S_DMACmd), (18 bytes).
    Removing stm32f10x_spi.o(i.SPI_I2S_DeInit), (88 bytes).
    Removing stm32f10x_spi.o(i.SPI_I2S_GetFlagStatus), (18 bytes).
    Removing stm32f10x_spi.o(i.SPI_I2S_GetITStatus), (52 bytes).
    Removing stm32f10x_spi.o(i.SPI_I2S_ITConfig), (32 bytes).
    Removing stm32f10x_spi.o(i.SPI_I2S_ReceiveData), (6 bytes).
    Removing stm32f10x_spi.o(i.SPI_I2S_SendData), (4 bytes).
    Removing stm32f10x_spi.o(i.SPI_Init), (60 bytes).
    Removing stm32f10x_spi.o(i.SPI_NSSInternalSoftwareConfig), (30 bytes).
    Removing stm32f10x_spi.o(i.SPI_SSOutputCmd), (24 bytes).
    Removing stm32f10x_spi.o(i.SPI_StructInit), (24 bytes).
    Removing stm32f10x_spi.o(i.SPI_TransmitCRC), (10 bytes).
    Removing stm32f10x_tim.o(i.TI1_Config), (128 bytes).
    Removing stm32f10x_tim.o(i.TI2_Config), (152 bytes).
    Removing stm32f10x_tim.o(i.TI3_Config), (144 bytes).
    Removing stm32f10x_tim.o(i.TI4_Config), (152 bytes).
    Removing stm32f10x_tim.o(i.TIM_ARRPreloadConfig), (24 bytes).
    Removing stm32f10x_tim.o(i.TIM_BDTRConfig), (32 bytes).
    Removing stm32f10x_tim.o(i.TIM_BDTRStructInit), (18 bytes).
    Removing stm32f10x_tim.o(i.TIM_CCPreloadControl), (24 bytes).
    Removing stm32f10x_tim.o(i.TIM_CCxCmd), (30 bytes).
    Removing stm32f10x_tim.o(i.TIM_CCxNCmd), (30 bytes).
    Removing stm32f10x_tim.o(i.TIM_ClearOC1Ref), (18 bytes).
    Removing stm32f10x_tim.o(i.TIM_ClearOC2Ref), (24 bytes).
    Removing stm32f10x_tim.o(i.TIM_ClearOC3Ref), (18 bytes).
    Removing stm32f10x_tim.o(i.TIM_ClearOC4Ref), (24 bytes).
    Removing stm32f10x_tim.o(i.TIM_CounterModeConfig), (18 bytes).
    Removing stm32f10x_tim.o(i.TIM_CtrlPWMOutputs), (30 bytes).
    Removing stm32f10x_tim.o(i.TIM_DMACmd), (18 bytes).
    Removing stm32f10x_tim.o(i.TIM_DMAConfig), (10 bytes).
    Removing stm32f10x_tim.o(i.TIM_DeInit), (488 bytes).
    Removing stm32f10x_tim.o(i.TIM_ETRClockMode1Config), (54 bytes).
    Removing stm32f10x_tim.o(i.TIM_ETRClockMode2Config), (32 bytes).
    Removing stm32f10x_tim.o(i.TIM_ETRConfig), (28 bytes).
    Removing stm32f10x_tim.o(i.TIM_EncoderInterfaceConfig), (66 bytes).
    Removing stm32f10x_tim.o(i.TIM_ForcedOC1Config), (18 bytes).
    Removing stm32f10x_tim.o(i.TIM_ForcedOC2Config), (26 bytes).
    Removing stm32f10x_tim.o(i.TIM_ForcedOC3Config), (18 bytes).
    Removing stm32f10x_tim.o(i.TIM_ForcedOC4Config), (26 bytes).
    Removing stm32f10x_tim.o(i.TIM_GenerateEvent), (4 bytes).
    Removing stm32f10x_tim.o(i.TIM_GetCapture1), (6 bytes).
    Removing stm32f10x_tim.o(i.TIM_GetCapture2), (6 bytes).
    Removing stm32f10x_tim.o(i.TIM_GetCapture3), (6 bytes).
    Removing stm32f10x_tim.o(i.TIM_GetCapture4), (8 bytes).
    Removing stm32f10x_tim.o(i.TIM_GetCounter), (6 bytes).
    Removing stm32f10x_tim.o(i.TIM_GetFlagStatus), (18 bytes).
    Removing stm32f10x_tim.o(i.TIM_GetPrescaler), (6 bytes).
    Removing stm32f10x_tim.o(i.TIM_ICInit), (172 bytes).
    Removing stm32f10x_tim.o(i.TIM_ICStructInit), (18 bytes).
    Removing stm32f10x_tim.o(i.TIM_ITRxExternalClockConfig), (24 bytes).
    Removing stm32f10x_tim.o(i.TIM_InternalClockConfig), (12 bytes).
    Removing stm32f10x_tim.o(i.TIM_OC1FastConfig), (18 bytes).
    Removing stm32f10x_tim.o(i.TIM_OC1Init), (152 bytes).
    Removing stm32f10x_tim.o(i.TIM_OC1NPolarityConfig), (18 bytes).
    Removing stm32f10x_tim.o(i.TIM_OC1PolarityConfig), (18 bytes).
    Removing stm32f10x_tim.o(i.TIM_OC1PreloadConfig), (18 bytes).
    Removing stm32f10x_tim.o(i.TIM_OC2FastConfig), (26 bytes).
    Removing stm32f10x_tim.o(i.TIM_OC2Init), (164 bytes).
    Removing stm32f10x_tim.o(i.TIM_OC2NPolarityConfig), (26 bytes).
    Removing stm32f10x_tim.o(i.TIM_OC2PolarityConfig), (26 bytes).
    Removing stm32f10x_tim.o(i.TIM_OC2PreloadConfig), (26 bytes).
    Removing stm32f10x_tim.o(i.TIM_OC3FastConfig), (18 bytes).
    Removing stm32f10x_tim.o(i.TIM_OC3Init), (160 bytes).
    Removing stm32f10x_tim.o(i.TIM_OC3NPolarityConfig), (26 bytes).
    Removing stm32f10x_tim.o(i.TIM_OC3PolarityConfig), (26 bytes).
    Removing stm32f10x_tim.o(i.TIM_OC3PreloadConfig), (18 bytes).
    Removing stm32f10x_tim.o(i.TIM_OC4FastConfig), (26 bytes).
    Removing stm32f10x_tim.o(i.TIM_OC4Init), (124 bytes).
    Removing stm32f10x_tim.o(i.TIM_OC4PolarityConfig), (26 bytes).
    Removing stm32f10x_tim.o(i.TIM_OC4PreloadConfig), (26 bytes).
    Removing stm32f10x_tim.o(i.TIM_OCStructInit), (20 bytes).
    Removing stm32f10x_tim.o(i.TIM_PWMIConfig), (124 bytes).
    Removing stm32f10x_tim.o(i.TIM_PrescalerConfig), (6 bytes).
    Removing stm32f10x_tim.o(i.TIM_SelectCCDMA), (24 bytes).
    Removing stm32f10x_tim.o(i.TIM_SelectCOM), (24 bytes).
    Removing stm32f10x_tim.o(i.TIM_SelectHallSensor), (24 bytes).
    Removing stm32f10x_tim.o(i.TIM_SelectInputTrigger), (18 bytes).
    Removing stm32f10x_tim.o(i.TIM_SelectMasterSlaveMode), (18 bytes).
    Removing stm32f10x_tim.o(i.TIM_SelectOCxM), (82 bytes).
    Removing stm32f10x_tim.o(i.TIM_SelectOnePulseMode), (18 bytes).
    Removing stm32f10x_tim.o(i.TIM_SelectOutputTrigger), (18 bytes).
    Removing stm32f10x_tim.o(i.TIM_SelectSlaveMode), (18 bytes).
    Removing stm32f10x_tim.o(i.TIM_SetAutoreload), (4 bytes).
    Removing stm32f10x_tim.o(i.TIM_SetClockDivision), (18 bytes).
    Removing stm32f10x_tim.o(i.TIM_SetCompare1), (4 bytes).
    Removing stm32f10x_tim.o(i.TIM_SetCompare2), (4 bytes).
    Removing stm32f10x_tim.o(i.TIM_SetCompare3), (4 bytes).
    Removing stm32f10x_tim.o(i.TIM_SetCompare4), (6 bytes).
    Removing stm32f10x_tim.o(i.TIM_SetCounter), (4 bytes).
    Removing stm32f10x_tim.o(i.TIM_SetIC1Prescaler), (18 bytes).
    Removing stm32f10x_tim.o(i.TIM_SetIC2Prescaler), (26 bytes).
    Removing stm32f10x_tim.o(i.TIM_SetIC3Prescaler), (18 bytes).
    Removing stm32f10x_tim.o(i.TIM_SetIC4Prescaler), (26 bytes).
    Removing stm32f10x_tim.o(i.TIM_TIxExternalClockConfig), (62 bytes).
    Removing stm32f10x_tim.o(i.TIM_TimeBaseStructInit), (18 bytes).
    Removing stm32f10x_tim.o(i.TIM_UpdateDisableConfig), (24 bytes).
    Removing stm32f10x_tim.o(i.TIM_UpdateRequestConfig), (24 bytes).
    Removing stm32f10x_usart.o(i.USART_ClearFlag), (18 bytes).
    Removing stm32f10x_usart.o(i.USART_ClearITPendingBit), (30 bytes).
    Removing stm32f10x_usart.o(i.USART_ClockInit), (34 bytes).
    Removing stm32f10x_usart.o(i.USART_ClockStructInit), (12 bytes).
    Removing stm32f10x_usart.o(i.USART_DMACmd), (18 bytes).
    Removing stm32f10x_usart.o(i.USART_DeInit), (156 bytes).
    Removing stm32f10x_usart.o(i.USART_HalfDuplexCmd), (24 bytes).
    Removing stm32f10x_usart.o(i.USART_IrDACmd), (24 bytes).
    Removing stm32f10x_usart.o(i.USART_IrDAConfig), (18 bytes).
    Removing stm32f10x_usart.o(i.USART_LINBreakDetectLengthConfig), (18 bytes).
    Removing stm32f10x_usart.o(i.USART_LINCmd), (24 bytes).
    Removing stm32f10x_usart.o(i.USART_OneBitMethodCmd), (24 bytes).
    Removing stm32f10x_usart.o(i.USART_OverSampling8Cmd), (22 bytes).
    Removing stm32f10x_usart.o(i.USART_ReceiverWakeUpCmd), (24 bytes).
    Removing stm32f10x_usart.o(i.USART_SendBreak), (10 bytes).
    Removing stm32f10x_usart.o(i.USART_SetAddress), (18 bytes).
    Removing stm32f10x_usart.o(i.USART_SetGuardTime), (16 bytes).
    Removing stm32f10x_usart.o(i.USART_SetPrescaler), (16 bytes).
    Removing stm32f10x_usart.o(i.USART_SmartCardCmd), (24 bytes).
    Removing stm32f10x_usart.o(i.USART_SmartCardNACKCmd), (24 bytes).
    Removing stm32f10x_usart.o(i.USART_StructInit), (24 bytes).
    Removing stm32f10x_usart.o(i.USART_WakeUpConfig), (18 bytes).
    Removing stm32f10x_wwdg.o(i.WWDG_ClearFlag), (12 bytes).
    Removing stm32f10x_wwdg.o(i.WWDG_DeInit), (22 bytes).
    Removing stm32f10x_wwdg.o(i.WWDG_Enable), (16 bytes).
    Removing stm32f10x_wwdg.o(i.WWDG_EnableIT), (12 bytes).
    Removing stm32f10x_wwdg.o(i.WWDG_GetFlagStatus), (12 bytes).
    Removing stm32f10x_wwdg.o(i.WWDG_SetCounter), (16 bytes).
    Removing stm32f10x_wwdg.o(i.WWDG_SetPrescaler), (24 bytes).
    Removing stm32f10x_wwdg.o(i.WWDG_SetWindowValue), (40 bytes).
    Removing core_cm3.o(.emb_text), (32 bytes).
    Removing startup_stm32f10x_md.o(HEAP), (512 bytes).
    Removing system_stm32f10x.o(i.SystemCoreClockUpdate), (164 bytes).
    Removing system_stm32f10x.o(.data), (20 bytes).
    Removing clock.o(i.rt_tick_get_millisecond), (8 bytes).
    Removing clock.o(i.rt_tick_set), (28 bytes).
    Removing idle.o(i.rt_thread_idle_gethandler), (20 bytes).
    Removing ipc.o(i._ipc_list_resume_all), (50 bytes).
    Removing ipc.o(i.rt_mb_control), (66 bytes).
    Removing ipc.o(i.rt_mb_create), (82 bytes).
    Removing ipc.o(i.rt_mb_delete), (36 bytes).
    Removing ipc.o(i.rt_mb_detach), (30 bytes).
    Removing ipc.o(i.rt_mb_init), (62 bytes).
    Removing ipc.o(i.rt_mb_recv), (250 bytes).
    Removing ipc.o(i.rt_mb_send), (18 bytes).
    Removing ipc.o(i.rt_mb_send_wait), (270 bytes).
    Removing ipc.o(i.rt_mb_urgent), (108 bytes).
    Removing ipc.o(i.rt_sem_control), (54 bytes).
    Removing ipc.o(i.rt_sem_delete), (22 bytes).
    Removing ipc.o(i.rt_sem_detach), (22 bytes).
    Removing ipc.o(i.rt_sem_trytake), (14 bytes).
    Removing irq.o(i.rt_interrupt_get_nest), (28 bytes).
    Removing kservice.o(i._rt_errno), (36 bytes).
    Removing kservice.o(i.rt_free_align), (22 bytes).
    Removing kservice.o(i.rt_get_errno), (36 bytes).
    Removing kservice.o(i.rt_hw_console_output), (2 bytes).
    Removing kservice.o(i.rt_hw_us_delay), (2 bytes).
    Removing kservice.o(i.rt_kputs), (18 bytes).
    Removing kservice.o(i.rt_malloc_align), (70 bytes).
    Removing kservice.o(i.rt_memcmp), (38 bytes).
    Removing kservice.o(i.rt_realloc), (44 bytes).
    Removing kservice.o(i.rt_set_errno), (40 bytes).
    Removing kservice.o(i.rt_snprintf), (38 bytes).
    Removing kservice.o(i.rt_strcasecmp), (48 bytes).
    Removing kservice.o(i.rt_strcmp), (28 bytes).
    Removing kservice.o(i.rt_strcpy), (24 bytes).
    Removing kservice.o(i.rt_strdup), (40 bytes).
    Removing kservice.o(i.rt_strlen), (18 bytes).
    Removing kservice.o(i.rt_strncmp), (40 bytes).
    Removing kservice.o(i.rt_strnlen), (24 bytes).
    Removing kservice.o(i.rt_strstr), (58 bytes).
    Removing mem.o(i.rt_smem_detach), (14 bytes).
    Removing mem.o(i.rt_smem_realloc), (224 bytes).
    Removing object.o(i.rt_object_find), (82 bytes).
    Removing object.o(i.rt_object_get_length), (58 bytes).
    Removing object.o(i.rt_object_get_pointers), (86 bytes).
    Removing object.o(i.rt_object_get_type), (10 bytes).
    Removing scheduler.o(i.rt_critical_level), (12 bytes).
    Removing thread.o(i.rt_thread_control), (146 bytes).
    Removing thread.o(i.rt_thread_delay_until), (112 bytes).
    Removing thread.o(i.rt_thread_delete), (72 bytes).
    Removing thread.o(i.rt_thread_detach), (72 bytes).
    Removing thread.o(i.rt_thread_find), (14 bytes).
    Removing thread.o(i.rt_thread_yield), (44 bytes).
    Removing timer.o(i.rt_timer_create), (54 bytes).
    Removing timer.o(i.rt_timer_delete), (40 bytes).
    Removing timer.o(i.rt_timer_next_timeout_tick), (24 bytes).
    Removing cpuport.o(i.rt_hw_cpu_reset), (16 bytes).
    Removing cpuport.o(i.rt_hw_cpu_shutdown), (28 bytes).
    Removing cpuport.o(i.rt_hw_exception_install), (12 bytes).
    Removing msh_parse.o(i.msh_ishex), (82 bytes).
    Removing msh_parse.o(i.msh_isint), (60 bytes).
    Removing msh_parse.o(i.msh_strtohex), (58 bytes).
    Removing shell.o(i.finsh_get_echo), (20 bytes).
    Removing shell.o(i.finsh_get_prompt_mode), (20 bytes).
    Removing shell.o(i.finsh_set_echo), (28 bytes).
    Removing shell.o(i.finsh_set_prompt), (68 bytes).

548 unused section(s) (total 23258 bytes) removed from the image.

==============================================================================

Image Symbol Table

    Local Symbols

    Symbol Name                              Value     Ov Type        Size  Object(Section)

    ../clib/../cmprslib/zerorunl2.c          0x00000000   Number         0  __dczerorl2.o ABSOLUTE
    ../clib/microlib/ctype/ctype.c           0x00000000   Number         0  iscntrl_o.o ABSOLUTE
    ../clib/microlib/ctype/ctype.c           0x00000000   Number         0  isxdigit_o.o ABSOLUTE
    ../clib/microlib/ctype/ctype.c           0x00000000   Number         0  isupper_o.o ABSOLUTE
    ../clib/microlib/ctype/ctype.c           0x00000000   Number         0  isspace_o.o ABSOLUTE
    ../clib/microlib/ctype/ctype.c           0x00000000   Number         0  ispunct_o.o ABSOLUTE
    ../clib/microlib/ctype/ctype.c           0x00000000   Number         0  isprint_o.o ABSOLUTE
    ../clib/microlib/ctype/ctype.c           0x00000000   Number         0  isalpha_o.o ABSOLUTE
    ../clib/microlib/ctype/ctype.c           0x00000000   Number         0  islower_o.o ABSOLUTE
    ../clib/microlib/ctype/ctype.c           0x00000000   Number         0  isgraph_o.o ABSOLUTE
    ../clib/microlib/ctype/ctype.c           0x00000000   Number         0  isdigit_o.o ABSOLUTE
    ../clib/microlib/ctype/ctype.c           0x00000000   Number         0  isalnum_o.o ABSOLUTE
    ../clib/microlib/ctype/ctype.c           0x00000000   Number         0  isblank_o.o ABSOLUTE
    ../clib/microlib/ctype/ctype.c           0x00000000   Number         0  ctype_o.o ABSOLUTE
    ../clib/microlib/ctype/tolower.c         0x00000000   Number         0  tolower.o ABSOLUTE
    ../clib/microlib/division.c              0x00000000   Number         0  uldiv.o ABSOLUTE
    ../clib/microlib/errno.c                 0x00000000   Number         0  errno.o ABSOLUTE
    ../clib/microlib/init/entry.s            0x00000000   Number         0  entry11b.o ABSOLUTE
    ../clib/microlib/init/entry.s            0x00000000   Number         0  entry2.o ABSOLUTE
    ../clib/microlib/init/entry.s            0x00000000   Number         0  entry5.o ABSOLUTE
    ../clib/microlib/init/entry.s            0x00000000   Number         0  entry7a.o ABSOLUTE
    ../clib/microlib/init/entry.s            0x00000000   Number         0  entry7b.o ABSOLUTE
    ../clib/microlib/init/entry.s            0x00000000   Number         0  entry8b.o ABSOLUTE
    ../clib/microlib/init/entry.s            0x00000000   Number         0  entry8a.o ABSOLUTE
    ../clib/microlib/init/entry.s            0x00000000   Number         0  entry9a.o ABSOLUTE
    ../clib/microlib/init/entry.s            0x00000000   Number         0  entry9b.o ABSOLUTE
    ../clib/microlib/init/entry.s            0x00000000   Number         0  entry10a.o ABSOLUTE
    ../clib/microlib/init/entry.s            0x00000000   Number         0  entry.o ABSOLUTE
    ../clib/microlib/init/entry.s            0x00000000   Number         0  entry10b.o ABSOLUTE
    ../clib/microlib/init/entry.s            0x00000000   Number         0  entry11a.o ABSOLUTE
    ../clib/microlib/longlong.c              0x00000000   Number         0  llshl.o ABSOLUTE
    ../clib/microlib/longlong.c              0x00000000   Number         0  llsshr.o ABSOLUTE
    ../clib/microlib/longlong.c              0x00000000   Number         0  llushr.o ABSOLUTE
    ../clib/microlib/string/memcpy.c         0x00000000   Number         0  memcpya.o ABSOLUTE
    ../clib/microlib/string/memcpy.c         0x00000000   Number         0  memcpyb.o ABSOLUTE
    ../clib/microlib/string/memset.c         0x00000000   Number         0  memseta.o ABSOLUTE
    ../clib/microlib/string/strcat.c         0x00000000   Number         0  strcat.o ABSOLUTE
    ../clib/microlib/string/strcmp.c         0x00000000   Number         0  strcmp.o ABSOLUTE
    ../clib/microlib/string/strcpy.c         0x00000000   Number         0  strcpy.o ABSOLUTE
    ../clib/microlib/string/strlen.c         0x00000000   Number         0  strlen.o ABSOLUTE
    ../clib/microlib/string/strncmp.c        0x00000000   Number         0  strncmp.o ABSOLUTE
    ../clib/microlib/string/strncpy.c        0x00000000   Number         0  strncpy.o ABSOLUTE
    ../clib/microlib/stubs.s                 0x00000000   Number         0  iusefp.o ABSOLUTE
    ../clib/scanf.c                          0x00000000   Number         0  atoi.o ABSOLUTE
    ../clib/scanf.c                          0x00000000   Number         0  _chval.o ABSOLUTE
    ../clib/scanf.c                          0x00000000   Number         0  _strtoul.o ABSOLUTE
    ../clib/scanf.c                          0x00000000   Number         0  strtol.o ABSOLUTE
    ../fplib/microlib/d2f.c                  0x00000000   Number         0  d2f.o ABSOLUTE
    ../fplib/microlib/f2d.c                  0x00000000   Number         0  f2d.o ABSOLUTE
    ../fplib/microlib/fpadd.c                0x00000000   Number         0  fadd.o ABSOLUTE
    ../fplib/microlib/fpadd.c                0x00000000   Number         0  dadd.o ABSOLUTE
    ../fplib/microlib/fpdiv.c                0x00000000   Number         0  fdiv.o ABSOLUTE
    ../fplib/microlib/fpdiv.c                0x00000000   Number         0  ddiv.o ABSOLUTE
    ../fplib/microlib/fpepilogue.c           0x00000000   Number         0  fepilogue.o ABSOLUTE
    ../fplib/microlib/fpepilogue.c           0x00000000   Number         0  depilogue.o ABSOLUTE
    ../fplib/microlib/fpfix.c                0x00000000   Number         0  ffixui.o ABSOLUTE
    ../fplib/microlib/fpfix.c                0x00000000   Number         0  ffixi.o ABSOLUTE
    ../fplib/microlib/fpflt.c                0x00000000   Number         0  dflti.o ABSOLUTE
    ../fplib/microlib/fpflt.c                0x00000000   Number         0  fflti.o ABSOLUTE
    ../fplib/microlib/fpflt.c                0x00000000   Number         0  ffltui.o ABSOLUTE
    ../fplib/microlib/fpflt.c                0x00000000   Number         0  dfltui.o ABSOLUTE
    ../fplib/microlib/fpmul.c                0x00000000   Number         0  dmul.o ABSOLUTE
    ../fplib/microlib/fpmul.c                0x00000000   Number         0  fmul.o ABSOLUTE
    ../fplib/microlib/fpscalb.c              0x00000000   Number         0  dscalb.o ABSOLUTE
    ../mathlib/dunder.c                      0x00000000   Number         0  dunder.o ABSOLUTE
    ../mathlib/log.c                         0x00000000   Number         0  log_x.o ABSOLUTE
    ../mathlib/log.c                         0x00000000   Number         0  log.o ABSOLUTE
    ../mathlib/poly.c                        0x00000000   Number         0  poly.o ABSOLUTE
    ../mathlib/qnan.c                        0x00000000   Number         0  qnan.o ABSOLUTE
    ..\\firmware\\comsis\\core\\core_cm3.c   0x00000000   Number         0  core_cm3.o ABSOLUTE
    ..\app\app.c                             0x00000000   Number         0  app.o ABSOLUTE
    ..\app\board.c                           0x00000000   Number         0  board.o ABSOLUTE
    ..\app\main.c                            0x00000000   Number         0  main.o ABSOLUTE
    ..\driver\bms_app\bms_analysis.c         0x00000000   Number         0  bms_analysis.o ABSOLUTE
    ..\driver\bms_app\bms_info.c             0x00000000   Number         0  bms_info.o ABSOLUTE
    ..\driver\bms_app\bms_monitor.c          0x00000000   Number         0  bms_monitor.o ABSOLUTE
    ..\driver\bms_app\bms_protect.c          0x00000000   Number         0  bms_protect.o ABSOLUTE
    ..\driver\bms_app\bms_utils.c            0x00000000   Number         0  bms_utils.o ABSOLUTE
    ..\driver\bms_app\bsm_balance.c          0x00000000   Number         0  bsm_balance.o ABSOLUTE
    ..\driver\bms_config\bms_control.c       0x00000000   Number         0  bms_control.o ABSOLUTE
    ..\driver\bq769\bq769.c                  0x00000000   Number         0  bq769.o ABSOLUTE
    ..\driver\delay\delay.c                  0x00000000   Number         0  delay.o ABSOLUTE
    ..\driver\soft_i2c\soft_i2c.c            0x00000000   Number         0  soft_i2c.o ABSOLUTE
    ..\driver\usart\usart.c                  0x00000000   Number         0  usart.o ABSOLUTE
    ..\firmware\comsis\core\core_cm3.c       0x00000000   Number         0  core_cm3.o ABSOLUTE
    ..\firmware\comsis\core\startup_stm32f10x_md.s 0x00000000   Number         0  startup_stm32f10x_md.o ABSOLUTE
    ..\firmware\comsis\device\stm32f10x_it.c 0x00000000   Number         0  stm32f10x_it.o ABSOLUTE
    ..\firmware\comsis\device\system_stm32f10x.c 0x00000000   Number         0  system_stm32f10x.o ABSOLUTE
    ..\firmware\driver\src\misc.c            0x00000000   Number         0  misc.o ABSOLUTE
    ..\firmware\driver\src\stm32f10x_adc.c   0x00000000   Number         0  stm32f10x_adc.o ABSOLUTE
    ..\firmware\driver\src\stm32f10x_bkp.c   0x00000000   Number         0  stm32f10x_bkp.o ABSOLUTE
    ..\firmware\driver\src\stm32f10x_can.c   0x00000000   Number         0  stm32f10x_can.o ABSOLUTE
    ..\firmware\driver\src\stm32f10x_cec.c   0x00000000   Number         0  stm32f10x_cec.o ABSOLUTE
    ..\firmware\driver\src\stm32f10x_crc.c   0x00000000   Number         0  stm32f10x_crc.o ABSOLUTE
    ..\firmware\driver\src\stm32f10x_dac.c   0x00000000   Number         0  stm32f10x_dac.o ABSOLUTE
    ..\firmware\driver\src\stm32f10x_dbgmcu.c 0x00000000   Number         0  stm32f10x_dbgmcu.o ABSOLUTE
    ..\firmware\driver\src\stm32f10x_dma.c   0x00000000   Number         0  stm32f10x_dma.o ABSOLUTE
    ..\firmware\driver\src\stm32f10x_exti.c  0x00000000   Number         0  stm32f10x_exti.o ABSOLUTE
    ..\firmware\driver\src\stm32f10x_flash.c 0x00000000   Number         0  stm32f10x_flash.o ABSOLUTE
    ..\firmware\driver\src\stm32f10x_fsmc.c  0x00000000   Number         0  stm32f10x_fsmc.o ABSOLUTE
    ..\firmware\driver\src\stm32f10x_gpio.c  0x00000000   Number         0  stm32f10x_gpio.o ABSOLUTE
    ..\firmware\driver\src\stm32f10x_i2c.c   0x00000000   Number         0  stm32f10x_i2c.o ABSOLUTE
    ..\firmware\driver\src\stm32f10x_iwdg.c  0x00000000   Number         0  stm32f10x_iwdg.o ABSOLUTE
    ..\firmware\driver\src\stm32f10x_pwr.c   0x00000000   Number         0  stm32f10x_pwr.o ABSOLUTE
    ..\firmware\driver\src\stm32f10x_rcc.c   0x00000000   Number         0  stm32f10x_rcc.o ABSOLUTE
    ..\firmware\driver\src\stm32f10x_rtc.c   0x00000000   Number         0  stm32f10x_rtc.o ABSOLUTE
    ..\firmware\driver\src\stm32f10x_sdio.c  0x00000000   Number         0  stm32f10x_sdio.o ABSOLUTE
    ..\firmware\driver\src\stm32f10x_spi.c   0x00000000   Number         0  stm32f10x_spi.o ABSOLUTE
    ..\firmware\driver\src\stm32f10x_tim.c   0x00000000   Number         0  stm32f10x_tim.o ABSOLUTE
    ..\firmware\driver\src\stm32f10x_usart.c 0x00000000   Number         0  stm32f10x_usart.o ABSOLUTE
    ..\firmware\driver\src\stm32f10x_wwdg.c  0x00000000   Number         0  stm32f10x_wwdg.o ABSOLUTE
    ..\third_lib\rt-thread\components\finsh\cmd.c 0x00000000   Number         0  cmd.o ABSOLUTE
    ..\third_lib\rt-thread\components\finsh\msh.c 0x00000000   Number         0  msh.o ABSOLUTE
    ..\third_lib\rt-thread\components\finsh\msh_file.c 0x00000000   Number         0  msh_file.o ABSOLUTE
    ..\third_lib\rt-thread\components\finsh\msh_parse.c 0x00000000   Number         0  msh_parse.o ABSOLUTE
    ..\third_lib\rt-thread\components\finsh\shell.c 0x00000000   Number         0  shell.o ABSOLUTE
    ..\third_lib\rt-thread\libcpu\arm\cortex-m3\context_rvds.S 0x00000000   Number         0  context_rvds.o ABSOLUTE
    ..\third_lib\rt-thread\libcpu\arm\cortex-m3\cpuport.c 0x00000000   Number         0  cpuport.o ABSOLUTE
    ..\third_lib\rt-thread\src\clock.c       0x00000000   Number         0  clock.o ABSOLUTE
    ..\third_lib\rt-thread\src\components.c  0x00000000   Number         0  components.o ABSOLUTE
    ..\third_lib\rt-thread\src\cpu.c         0x00000000   Number         0  cpu.o ABSOLUTE
    ..\third_lib\rt-thread\src\device.c      0x00000000   Number         0  device.o ABSOLUTE
    ..\third_lib\rt-thread\src\idle.c        0x00000000   Number         0  idle.o ABSOLUTE
    ..\third_lib\rt-thread\src\ipc.c         0x00000000   Number         0  ipc.o ABSOLUTE
    ..\third_lib\rt-thread\src\irq.c         0x00000000   Number         0  irq.o ABSOLUTE
    ..\third_lib\rt-thread\src\kservice.c    0x00000000   Number         0  kservice.o ABSOLUTE
    ..\third_lib\rt-thread\src\mem.c         0x00000000   Number         0  mem.o ABSOLUTE
    ..\third_lib\rt-thread\src\memheap.c     0x00000000   Number         0  memheap.o ABSOLUTE
    ..\third_lib\rt-thread\src\mempool.c     0x00000000   Number         0  mempool.o ABSOLUTE
    ..\third_lib\rt-thread\src\object.c      0x00000000   Number         0  object.o ABSOLUTE
    ..\third_lib\rt-thread\src\scheduler.c   0x00000000   Number         0  scheduler.o ABSOLUTE
    ..\third_lib\rt-thread\src\signal.c      0x00000000   Number         0  signal.o ABSOLUTE
    ..\third_lib\rt-thread\src\slab.c        0x00000000   Number         0  slab.o ABSOLUTE
    ..\third_lib\rt-thread\src\thread.c      0x00000000   Number         0  thread.o ABSOLUTE
    ..\third_lib\rt-thread\src\timer.c       0x00000000   Number         0  timer.o ABSOLUTE
    cdcmple.s                                0x00000000   Number         0  cdcmple.o ABSOLUTE
    cfcmple.s                                0x00000000   Number         0  cfcmple.o ABSOLUTE
    cfrcmple.s                               0x00000000   Number         0  cfrcmple.o ABSOLUTE
    dc.s                                     0x00000000   Number         0  dc.o ABSOLUTE
    handlers.s                               0x00000000   Number         0  handlers.o ABSOLUTE
    init.s                                   0x00000000   Number         0  init.o ABSOLUTE
    RESET                                    0x08000000   Section      236  startup_stm32f10x_md.o(RESET)
    .ARM.Collect$$$$00000000                 0x080000ec   Section        0  entry.o(.ARM.Collect$$$$00000000)
    .ARM.Collect$$$$00000001                 0x080000ec   Section        4  entry2.o(.ARM.Collect$$$$00000001)
    .ARM.Collect$$$$00000004                 0x080000f0   Section        4  entry5.o(.ARM.Collect$$$$00000004)
    .ARM.Collect$$$$00000008                 0x080000f4   Section        0  entry7b.o(.ARM.Collect$$$$00000008)
    .ARM.Collect$$$$0000000A                 0x080000f4   Section        0  entry8b.o(.ARM.Collect$$$$0000000A)
    .ARM.Collect$$$$0000000B                 0x080000f4   Section        8  entry9a.o(.ARM.Collect$$$$0000000B)
    .ARM.Collect$$$$0000000D                 0x080000fc   Section        0  entry10a.o(.ARM.Collect$$$$0000000D)
    .ARM.Collect$$$$0000000F                 0x080000fc   Section        0  entry11a.o(.ARM.Collect$$$$0000000F)
    .ARM.Collect$$$$00002712                 0x080000fc   Section        4  entry2.o(.ARM.Collect$$$$00002712)
    __lit__00000000                          0x080000fc   Data           4  entry2.o(.ARM.Collect$$$$00002712)
    .text                                    0x08000100   Section       36  startup_stm32f10x_md.o(.text)
    .text                                    0x08000124   Section      252  context_rvds.o(.text)
    .text                                    0x08000220   Section        0  ctype_o.o(.text)
    .text                                    0x08000228   Section        0  memcpya.o(.text)
    .text                                    0x0800024c   Section        0  memseta.o(.text)
    .text                                    0x08000270   Section        0  strcat.o(.text)
    .text                                    0x08000288   Section        0  strncpy.o(.text)
    .text                                    0x080002a0   Section        0  strlen.o(.text)
    .text                                    0x080002ae   Section        0  strcmp.o(.text)
    .text                                    0x080002ca   Section        0  strcpy.o(.text)
    .text                                    0x080002dc   Section        0  strncmp.o(.text)
    .text                                    0x080002fa   Section        0  atoi.o(.text)
    .text                                    0x08000314   Section        0  fadd.o(.text)
    .text                                    0x080003c4   Section        0  fmul.o(.text)
    .text                                    0x08000428   Section        0  fdiv.o(.text)
    .text                                    0x080004a4   Section        0  dadd.o(.text)
    .text                                    0x080005f2   Section        0  dmul.o(.text)
    .text                                    0x080006d6   Section        0  ddiv.o(.text)
    .text                                    0x080007b4   Section        0  fflti.o(.text)
    .text                                    0x080007c6   Section        0  ffltui.o(.text)
    .text                                    0x080007d0   Section        0  dflti.o(.text)
    .text                                    0x080007f2   Section        0  dfltui.o(.text)
    .text                                    0x0800080c   Section        0  ffixi.o(.text)
    .text                                    0x0800083e   Section        0  ffixui.o(.text)
    .text                                    0x08000866   Section        0  f2d.o(.text)
    .text                                    0x0800088c   Section        0  d2f.o(.text)
    .text                                    0x080008c4   Section       20  cfcmple.o(.text)
    .text                                    0x080008d8   Section       20  cfrcmple.o(.text)
    .text                                    0x080008ec   Section        0  llshl.o(.text)
    .text                                    0x0800090a   Section        0  llushr.o(.text)
    .text                                    0x0800092a   Section        0  llsshr.o(.text)
    .text                                    0x0800094e   Section        0  strtol.o(.text)
    .text                                    0x080009be   Section        0  fepilogue.o(.text)
    .text                                    0x080009be   Section        0  iusefp.o(.text)
    .text                                    0x08000a2c   Section        0  depilogue.o(.text)
    .text                                    0x08000ae6   Section        0  dscalb.o(.text)
    .text                                    0x08000b14   Section       48  cdcmple.o(.text)
    .text                                    0x08000b44   Section       36  init.o(.text)
    .text                                    0x08000b68   Section        0  _strtoul.o(.text)
    .text                                    0x08000c06   Section        0  _chval.o(.text)
    .text                                    0x08000c22   Section        0  __dczerorl2.o(.text)
    i.$Sub$$main                             0x08000c78   Section        0  components.o(i.$Sub$$main)
    i.BMS_MonitorBattery                     0x08000c84   Section        0  bms_monitor.o(i.BMS_MonitorBattery)
    BMS_MonitorBattery                       0x08000c85   Thumb Code   200  bms_monitor.o(i.BMS_MonitorBattery)
    i.BMS_MonitorInit                        0x08000d6c   Section        0  bms_monitor.o(i.BMS_MonitorInit)
    i.BMS_MonitorSysMode                     0x08000da0   Section        0  bms_monitor.o(i.BMS_MonitorSysMode)
    BMS_MonitorSysMode                       0x08000da1   Thumb Code    92  bms_monitor.o(i.BMS_MonitorSysMode)
    i.BQ769X0_AlertyHandler                  0x08000e10   Section        0  bq769.o(i.BQ769X0_AlertyHandler)
    BQ769X0_AlertyHandler                    0x08000e11   Thumb Code   206  bq769.o(i.BQ769X0_AlertyHandler)
    i.BQ769X0_Configuration                  0x08000ee4   Section        0  bq769.o(i.BQ769X0_Configuration)
    BQ769X0_Configuration                    0x08000ee5   Thumb Code   142  bq769.o(i.BQ769X0_Configuration)
    i.BQ769X0_EntryShip                      0x08000f78   Section        0  bq769.o(i.BQ769X0_EntryShip)
    i.BQ769X0_GetADCGainOffset               0x08000f94   Section        0  bq769.o(i.BQ769X0_GetADCGainOffset)
    i.BQ769X0_Initialize                     0x08001054   Section        0  bq769.o(i.BQ769X0_Initialize)
    i.BQ769X0_ReadBlockWithCRC               0x08001134   Section        0  bq769.o(i.BQ769X0_ReadBlockWithCRC)
    BQ769X0_ReadBlockWithCRC                 0x08001135   Thumb Code   190  bq769.o(i.BQ769X0_ReadBlockWithCRC)
    i.BQ769X0_ReadRegisterByteWithCRC        0x080011f8   Section        0  bq769.o(i.BQ769X0_ReadRegisterByteWithCRC)
    BQ769X0_ReadRegisterByteWithCRC          0x080011f9   Thumb Code   126  bq769.o(i.BQ769X0_ReadRegisterByteWithCRC)
    i.BQ769X0_ReadRegisterWordWithCRC        0x0800127c   Section        0  bq769.o(i.BQ769X0_ReadRegisterWordWithCRC)
    BQ769X0_ReadRegisterWordWithCRC          0x0800127d   Thumb Code   176  bq769.o(i.BQ769X0_ReadRegisterWordWithCRC)
    i.BQ769X0_TS1_SetInMode                  0x08001368   Section        0  bq769.o(i.BQ769X0_TS1_SetInMode)
    BQ769X0_TS1_SetInMode                    0x08001369   Thumb Code    32  bq769.o(i.BQ769X0_TS1_SetInMode)
    i.BQ769X0_TS1_SetOutMode                 0x0800138c   Section        0  bq769.o(i.BQ769X0_TS1_SetOutMode)
    BQ769X0_TS1_SetOutMode                   0x0800138d   Thumb Code    32  bq769.o(i.BQ769X0_TS1_SetOutMode)
    i.BQ769X0_UpdateBatVolt                  0x080013b0   Section        0  bq769.o(i.BQ769X0_UpdateBatVolt)
    i.BQ769X0_UpdateCellVolt                 0x08001430   Section        0  bq769.o(i.BQ769X0_UpdateCellVolt)
    i.BQ769X0_UpdateCurrent                  0x080014b8   Section        0  bq769.o(i.BQ769X0_UpdateCurrent)
    i.BQ769X0_UpdateTsTemp                   0x08001548   Section        0  bq769.o(i.BQ769X0_UpdateTsTemp)
    i.BQ769X0_Wakeup                         0x08001620   Section        0  bq769.o(i.BQ769X0_Wakeup)
    i.BQ769X0_WriteBlockWithCRC              0x08001658   Section        0  bq769.o(i.BQ769X0_WriteBlockWithCRC)
    BQ769X0_WriteBlockWithCRC                0x08001659   Thumb Code   152  bq769.o(i.BQ769X0_WriteBlockWithCRC)
    i.BQ769X0_WriteRegisterByteWithCRC       0x080016f4   Section        0  bq769.o(i.BQ769X0_WriteRegisterByteWithCRC)
    BQ769X0_WriteRegisterByteWithCRC         0x080016f5   Thumb Code    94  bq769.o(i.BQ769X0_WriteRegisterByteWithCRC)
    i.Bms_MonitorTask                        0x08001758   Section        0  bms_monitor.o(i.Bms_MonitorTask)
    Bms_MonitorTask                          0x08001759   Thumb Code   180  bms_monitor.o(i.Bms_MonitorTask)
    i.BusFault_Handler                       0x0800183c   Section        0  stm32f10x_it.o(i.BusFault_Handler)
    i.CRC8                                   0x08001840   Section        0  bq769.o(i.CRC8)
    CRC8                                     0x08001841   Thumb Code    68  bq769.o(i.CRC8)
    i.DebugMon_Handler                       0x08001884   Section        0  stm32f10x_it.o(i.DebugMon_Handler)
    i.EXTI15_10_IRQHandler                   0x08001886   Section        0  bq769.o(i.EXTI15_10_IRQHandler)
    i.EXTI_ClearITPendingBit                 0x080018a0   Section        0  stm32f10x_exti.o(i.EXTI_ClearITPendingBit)
    i.EXTI_GetITStatus                       0x080018ac   Section        0  stm32f10x_exti.o(i.EXTI_GetITStatus)
    i.GET_SDA                                0x080018d4   Section        0  soft_i2c.o(i.GET_SDA)
    GET_SDA                                  0x080018d5   Thumb Code    14  soft_i2c.o(i.GET_SDA)
    i.GPIO_Init                              0x080018e2   Section        0  stm32f10x_gpio.o(i.GPIO_Init)
    i.GPIO_ReadInputDataBit                  0x080019f8   Section        0  stm32f10x_gpio.o(i.GPIO_ReadInputDataBit)
    i.GPIO_SetBits                           0x08001a0a   Section        0  stm32f10x_gpio.o(i.GPIO_SetBits)
    i.GPIO_WriteBit                          0x08001a0e   Section        0  stm32f10x_gpio.o(i.GPIO_WriteBit)
    i.I2C1_Lock                              0x08001a18   Section        0  soft_i2c.o(i.I2C1_Lock)
    I2C1_Lock                                0x08001a19   Thumb Code    12  soft_i2c.o(i.I2C1_Lock)
    i.I2C1_LockInit                          0x08001a28   Section        0  soft_i2c.o(i.I2C1_LockInit)
    I2C1_LockInit                            0x08001a29   Thumb Code     2  soft_i2c.o(i.I2C1_LockInit)
    i.I2C1_Unlock                            0x08001a2c   Section        0  soft_i2c.o(i.I2C1_Unlock)
    I2C1_Unlock                              0x08001a2d   Thumb Code    12  soft_i2c.o(i.I2C1_Unlock)
    i.I2C_BitSendAddress                     0x08001a3c   Section        0  soft_i2c.o(i.I2C_BitSendAddress)
    I2C_BitSendAddress                       0x08001a3d   Thumb Code   186  soft_i2c.o(i.I2C_BitSendAddress)
    i.I2C_BusHardwareInitialize              0x08001b28   Section        0  soft_i2c.o(i.I2C_BusHardwareInitialize)
    I2C_BusHardwareInitialize                0x08001b29   Thumb Code    64  soft_i2c.o(i.I2C_BusHardwareInitialize)
    i.I2C_BusInitialize                      0x08001b68   Section        0  soft_i2c.o(i.I2C_BusInitialize)
    i.I2C_ReadByte                           0x08001b78   Section        0  soft_i2c.o(i.I2C_ReadByte)
    I2C_ReadByte                             0x08001b79   Thumb Code    72  soft_i2c.o(i.I2C_ReadByte)
    i.I2C_RecvBytes                          0x08001bc0   Section        0  soft_i2c.o(i.I2C_RecvBytes)
    I2C_RecvBytes                            0x08001bc1   Thumb Code   104  soft_i2c.o(i.I2C_RecvBytes)
    i.I2C_Restart                            0x08001c28   Section        0  soft_i2c.o(i.I2C_Restart)
    I2C_Restart                              0x08001c29   Thumb Code    42  soft_i2c.o(i.I2C_Restart)
    i.I2C_SendAddress                        0x08001c52   Section        0  soft_i2c.o(i.I2C_SendAddress)
    I2C_SendAddress                          0x08001c53   Thumb Code    72  soft_i2c.o(i.I2C_SendAddress)
    i.I2C_SendBytes                          0x08001c9a   Section        0  soft_i2c.o(i.I2C_SendBytes)
    I2C_SendBytes                            0x08001c9b   Thumb Code   114  soft_i2c.o(i.I2C_SendBytes)
    i.I2C_Start                              0x08001d0c   Section        0  soft_i2c.o(i.I2C_Start)
    I2C_Start                                0x08001d0d   Thumb Code    24  soft_i2c.o(i.I2C_Start)
    i.I2C_Stop                               0x08001d24   Section        0  soft_i2c.o(i.I2C_Stop)
    I2C_Stop                                 0x08001d25   Thumb Code    42  soft_i2c.o(i.I2C_Stop)
    i.I2C_TransferMessages                   0x08001d4e   Section        0  soft_i2c.o(i.I2C_TransferMessages)
    i.I2C_WriteByte                          0x08001e04   Section        0  soft_i2c.o(i.I2C_WriteByte)
    I2C_WriteByte                            0x08001e05   Thumb Code   134  soft_i2c.o(i.I2C_WriteByte)
    i.MemManage_Handler                      0x08001e8a   Section        0  stm32f10x_it.o(i.MemManage_Handler)
    i.NMI_Handler                            0x08001e8e   Section        0  stm32f10x_it.o(i.NMI_Handler)
    i.NVIC_Init                              0x08001e90   Section        0  misc.o(i.NVIC_Init)
    i.NVIC_PriorityGroupConfig               0x08001f00   Section        0  misc.o(i.NVIC_PriorityGroupConfig)
    i.RCC_APB1PeriphClockCmd                 0x08001f14   Section        0  stm32f10x_rcc.o(i.RCC_APB1PeriphClockCmd)
    i.RCC_APB2PeriphClockCmd                 0x08001f34   Section        0  stm32f10x_rcc.o(i.RCC_APB2PeriphClockCmd)
    i.RCC_GetClocksFreq                      0x08001f54   Section        0  stm32f10x_rcc.o(i.RCC_GetClocksFreq)
    i.SCL_H                                  0x08002028   Section        0  soft_i2c.o(i.SCL_H)
    SCL_H                                    0x08002029   Thumb Code    16  soft_i2c.o(i.SCL_H)
    i.SCL_L                                  0x08002038   Section        0  soft_i2c.o(i.SCL_L)
    SCL_L                                    0x08002039   Thumb Code    16  soft_i2c.o(i.SCL_L)
    i.SDA_H                                  0x08002048   Section        0  soft_i2c.o(i.SDA_H)
    SDA_H                                    0x08002049   Thumb Code    16  soft_i2c.o(i.SDA_H)
    i.SDA_L                                  0x08002058   Section        0  soft_i2c.o(i.SDA_L)
    SDA_L                                    0x08002059   Thumb Code    16  soft_i2c.o(i.SDA_L)
    i.SDA_SetInMode                          0x08002068   Section        0  soft_i2c.o(i.SDA_SetInMode)
    SDA_SetInMode                            0x08002069   Thumb Code    32  soft_i2c.o(i.SDA_SetInMode)
    i.SDA_SetOutMode                         0x08002088   Section        0  soft_i2c.o(i.SDA_SetOutMode)
    SDA_SetOutMode                           0x08002089   Thumb Code    32  soft_i2c.o(i.SDA_SetOutMode)
    i.SetSysClock                            0x080020a8   Section        0  system_stm32f10x.o(i.SetSysClock)
    SetSysClock                              0x080020a9   Thumb Code     8  system_stm32f10x.o(i.SetSysClock)
    i.SetSysClockTo72                        0x080020b0   Section        0  system_stm32f10x.o(i.SetSysClockTo72)
    SetSysClockTo72                          0x080020b1   Thumb Code   214  system_stm32f10x.o(i.SetSysClockTo72)
    i.SystemInit                             0x08002190   Section        0  system_stm32f10x.o(i.SystemInit)
    i.TIM3_IRQHandler                        0x080021f0   Section        0  delay.o(i.TIM3_IRQHandler)
    i.TIM_ClearFlag                          0x08002238   Section        0  stm32f10x_tim.o(i.TIM_ClearFlag)
    i.TIM_ClearITPendingBit                  0x0800223e   Section        0  stm32f10x_tim.o(i.TIM_ClearITPendingBit)
    i.TIM_Cmd                                0x08002244   Section        0  stm32f10x_tim.o(i.TIM_Cmd)
    i.TIM_GetITStatus                        0x0800225c   Section        0  stm32f10x_tim.o(i.TIM_GetITStatus)
    i.TIM_ITConfig                           0x0800227e   Section        0  stm32f10x_tim.o(i.TIM_ITConfig)
    i.TIM_TimeBaseInit                       0x08002290   Section        0  stm32f10x_tim.o(i.TIM_TimeBaseInit)
    i.TempChange                             0x08002334   Section        0  bq769.o(i.TempChange)
    TempChange                               0x08002335   Thumb Code   162  bq769.o(i.TempChange)
    i.USART1_IO_Init                         0x080023f0   Section        0  usart.o(i.USART1_IO_Init)
    USART1_IO_Init                           0x080023f1   Thumb Code   100  usart.o(i.USART1_IO_Init)
    i.USART1_IRQHandler                      0x0800245c   Section        0  usart.o(i.USART1_IRQHandler)
    i.USART1_Init                            0x080024d0   Section        0  usart.o(i.USART1_Init)
    i.USART1_func_Init                       0x080024fc   Section        0  usart.o(i.USART1_func_Init)
    USART1_func_Init                         0x080024fd   Thumb Code   112  usart.o(i.USART1_func_Init)
    i.USART_Cmd                              0x08002570   Section        0  stm32f10x_usart.o(i.USART_Cmd)
    i.USART_GetFlagStatus                    0x08002588   Section        0  stm32f10x_usart.o(i.USART_GetFlagStatus)
    i.USART_GetITStatus                      0x080025a2   Section        0  stm32f10x_usart.o(i.USART_GetITStatus)
    i.USART_ITConfig                         0x080025f6   Section        0  stm32f10x_usart.o(i.USART_ITConfig)
    i.USART_Init                             0x08002640   Section        0  stm32f10x_usart.o(i.USART_Init)
    i.USART_ReceiveData                      0x08002718   Section        0  stm32f10x_usart.o(i.USART_ReceiveData)
    i.USART_SendData                         0x08002722   Section        0  stm32f10x_usart.o(i.USART_SendData)
    i.UsageFault_Handler                     0x0800272a   Section        0  stm32f10x_it.o(i.UsageFault_Handler)
    i.__aeabi_errno_addr                     0x08002730   Section        0  errno.o(i.__aeabi_errno_addr)
    i.__kernel_poly                          0x08002738   Section        0  poly.o(i.__kernel_poly)
    i.__mathlib_dbl_divzero                  0x080027e4   Section        0  dunder.o(i.__mathlib_dbl_divzero)
    i.__mathlib_dbl_infnan                   0x080027f4   Section        0  dunder.o(i.__mathlib_dbl_infnan)
    i.__mathlib_dbl_invalid                  0x080027fa   Section        0  dunder.o(i.__mathlib_dbl_invalid)
    i.__rt_ffs                               0x08002808   Section        0  kservice.o(i.__rt_ffs)
    i.__scatterload_copy                     0x08002854   Section       14  handlers.o(i.__scatterload_copy)
    i.__scatterload_null                     0x08002862   Section        2  handlers.o(i.__scatterload_null)
    i.__scatterload_zeroinit                 0x08002864   Section       14  handlers.o(i.__scatterload_zeroinit)
    i.__set_errno                            0x08002874   Section        0  errno.o(i.__set_errno)
    i._heap_lock                             0x08002880   Section        0  kservice.o(i._heap_lock)
    _heap_lock                               0x08002881   Thumb Code    10  kservice.o(i._heap_lock)
    i._heap_unlock                           0x0800288a   Section        0  kservice.o(i._heap_unlock)
    _heap_unlock                             0x0800288b   Thumb Code    10  kservice.o(i._heap_unlock)
    i._ipc_list_resume                       0x08002894   Section        0  ipc.o(i._ipc_list_resume)
    _ipc_list_resume                         0x08002895   Thumb Code    20  ipc.o(i._ipc_list_resume)
    i._ipc_list_suspend                      0x080028a8   Section        0  ipc.o(i._ipc_list_suspend)
    _ipc_list_suspend                        0x080028a9   Thumb Code   110  ipc.o(i._ipc_list_suspend)
    i._ipc_object_init                       0x08002916   Section        0  ipc.o(i._ipc_object_init)
    _ipc_object_init                         0x08002917   Thumb Code    16  ipc.o(i._ipc_object_init)
    i._msh_exec_cmd                          0x08002926   Section        0  msh.o(i._msh_exec_cmd)
    _msh_exec_cmd                            0x08002927   Thumb Code   108  msh.o(i._msh_exec_cmd)
    i._scheduler_get_highest_priority_thread 0x08002994   Section        0  scheduler.o(i._scheduler_get_highest_priority_thread)
    _scheduler_get_highest_priority_thread   0x08002995   Thumb Code    30  scheduler.o(i._scheduler_get_highest_priority_thread)
    i._thread_exit                           0x080029bc   Section        0  thread.o(i._thread_exit)
    _thread_exit                             0x080029bd   Thumb Code    52  thread.o(i._thread_exit)
    i._thread_init                           0x080029f0   Section        0  thread.o(i._thread_init)
    _thread_init                             0x080029f1   Thumb Code   120  thread.o(i._thread_init)
    i._thread_timeout                        0x08002a70   Section        0  thread.o(i._thread_timeout)
    _thread_timeout                          0x08002a71   Thumb Code    44  thread.o(i._thread_timeout)
    i._timer_init                            0x08002a9c   Section        0  timer.o(i._timer_init)
    _timer_init                              0x08002a9d   Thumb Code    66  timer.o(i._timer_init)
    i._timer_list_next_timeout               0x08002ade   Section        0  timer.o(i._timer_list_next_timeout)
    _timer_list_next_timeout                 0x08002adf   Thumb Code    56  timer.o(i._timer_list_next_timeout)
    i._timer_remove                          0x08002b16   Section        0  timer.o(i._timer_remove)
    _timer_remove                            0x08002b17   Thumb Code    28  timer.o(i._timer_remove)
    i._timer_thread_entry                    0x08002b34   Section        0  timer.o(i._timer_thread_entry)
    _timer_thread_entry                      0x08002b35   Thumb Code    68  timer.o(i._timer_thread_entry)
    i.app_init                               0x08002b7c   Section        0  app.o(i.app_init)
    i.bus_fault_track                        0x08002bc8   Section        0  cpuport.o(i.bus_fault_track)
    bus_fault_track                          0x08002bc9   Thumb Code   130  cpuport.o(i.bus_fault_track)
    i.clear                                  0x08002cc4   Section        0  cmd.o(i.clear)
    clear                                    0x08002cc5   Thumb Code    12  cmd.o(i.clear)
    i.cmd_free                               0x08002cd8   Section        0  msh.o(i.cmd_free)
    i.cmd_list                               0x08002d58   Section        0  cmd.o(i.cmd_list)
    i.cmd_ps                                 0x08002e88   Section        0  msh.o(i.cmd_ps)
    i.delay_us                               0x08002e96   Section        0  soft_i2c.o(i.delay_us)
    delay_us                                 0x08002e97   Thumb Code    38  soft_i2c.o(i.delay_us)
    i.finsh_get_prompt                       0x08002ebc   Section        0  shell.o(i.finsh_get_prompt)
    i.finsh_getchar                          0x08002f18   Section        0  shell.o(i.finsh_getchar)
    i.finsh_set_prompt_mode                  0x08002f20   Section        0  shell.o(i.finsh_set_prompt_mode)
    i.finsh_system_function_init             0x08002f3c   Section        0  shell.o(i.finsh_system_function_init)
    i.finsh_system_init                      0x08002f50   Section        0  shell.o(i.finsh_system_init)
    i.finsh_thread_entry                     0x08002fec   Section        0  shell.o(i.finsh_thread_entry)
    i.hard_fault_track                       0x080033b0   Section        0  cpuport.o(i.hard_fault_track)
    hard_fault_track                         0x080033b1   Thumb Code    82  cpuport.o(i.hard_fault_track)
    i.list_find_init                         0x08003430   Section        0  cmd.o(i.list_find_init)
    list_find_init                           0x08003431   Thumb Code    42  cmd.o(i.list_find_init)
    i.list_get_next                          0x0800345a   Section        0  cmd.o(i.list_get_next)
    list_get_next                            0x0800345b   Thumb Code   136  cmd.o(i.list_get_next)
    i.list_mailbox                           0x080034e4   Section        0  cmd.o(i.list_mailbox)
    i.list_sem                               0x08003640   Section        0  cmd.o(i.list_sem)
    i.list_thread                            0x08003778   Section        0  cmd.o(i.list_thread)
    i.list_timer                             0x08003964   Section        0  cmd.o(i.list_timer)
    i.log                                    0x08003b0c   Section        0  log.o(i.log)
    i.main                                   0x08003e68   Section        0  main.o(i.main)
    i.main_thread_entry                      0x08003e78   Section        0  components.o(i.main_thread_entry)
    i.mem_manage_fault_track                 0x08003e88   Section        0  cpuport.o(i.mem_manage_fault_track)
    mem_manage_fault_track                   0x08003e89   Thumb Code   114  cpuport.o(i.mem_manage_fault_track)
    i.msh_auto_complete                      0x08003f70   Section        0  msh.o(i.msh_auto_complete)
    i.msh_exec                               0x08003ff4   Section        0  msh.o(i.msh_exec)
    i.msh_get_cmd                            0x08004060   Section        0  msh.o(i.msh_get_cmd)
    msh_get_cmd                              0x08004061   Thumb Code    56  msh.o(i.msh_get_cmd)
    i.msh_help                               0x080040a0   Section        0  msh.o(i.msh_help)
    i.msh_split                              0x08004104   Section        0  msh.o(i.msh_split)
    msh_split                                0x08004105   Thumb Code   202  msh.o(i.msh_split)
    i.object_split                           0x080041f4   Section        0  cmd.o(i.object_split)
    object_split                             0x080041f5   Thumb Code    22  cmd.o(i.object_split)
    i.plug_holes                             0x08004210   Section        0  mem.o(i.plug_holes)
    plug_holes                               0x08004211   Thumb Code   102  mem.o(i.plug_holes)
    i.print_number                           0x08004278   Section        0  kservice.o(i.print_number)
    print_number                             0x08004279   Thumb Code   400  kservice.o(i.print_number)
    i.rt_application_init                    0x08004410   Section        0  components.o(i.rt_application_init)
    i.rt_calloc                              0x08004440   Section        0  kservice.o(i.rt_calloc)
    i.rt_components_board_init               0x08004464   Section        0  components.o(i.rt_components_board_init)
    i.rt_components_init                     0x08004480   Section        0  components.o(i.rt_components_init)
    i.rt_defunct_execute                     0x0800449c   Section        0  idle.o(i.rt_defunct_execute)
    rt_defunct_execute                       0x0800449d   Thumb Code    62  idle.o(i.rt_defunct_execute)
    i.rt_enter_critical                      0x080044dc   Section        0  scheduler.o(i.rt_enter_critical)
    i.rt_exit_critical                       0x080044fc   Section        0  scheduler.o(i.rt_exit_critical)
    i.rt_free                                0x08004540   Section        0  kservice.o(i.rt_free)
    i.rt_heap_begin_get                      0x08004560   Section        0  board.o(i.rt_heap_begin_get)
    i.rt_heap_end_get                        0x08004568   Section        0  board.o(i.rt_heap_end_get)
    i.rt_hw_board_init                       0x08004570   Section        0  board.o(i.rt_hw_board_init)
    i.rt_hw_console_getchar                  0x08004590   Section        0  board.o(i.rt_hw_console_getchar)
    i.rt_hw_console_output                   0x080045f0   Section        0  board.o(i.rt_hw_console_output)
    i.rt_hw_hard_fault_exception             0x08004638   Section        0  cpuport.o(i.rt_hw_hard_fault_exception)
    i.rt_hw_stack_init                       0x08004840   Section        0  cpuport.o(i.rt_hw_stack_init)
    i.rt_interrupt_enter                     0x0800488c   Section        0  irq.o(i.rt_interrupt_enter)
    i.rt_interrupt_leave                     0x080048ac   Section        0  irq.o(i.rt_interrupt_leave)
    i.rt_kprintf                             0x080048cc   Section        0  kservice.o(i.rt_kprintf)
    i.rt_list_init                           0x08004900   Section        0  ipc.o(i.rt_list_init)
    rt_list_init                             0x08004901   Thumb Code     6  ipc.o(i.rt_list_init)
    i.rt_list_init                           0x08004906   Section        0  timer.o(i.rt_list_init)
    rt_list_init                             0x08004907   Thumb Code     6  timer.o(i.rt_list_init)
    i.rt_list_insert_after                   0x0800490c   Section        0  object.o(i.rt_list_insert_after)
    rt_list_insert_after                     0x0800490d   Thumb Code    14  object.o(i.rt_list_insert_after)
    i.rt_list_insert_after                   0x0800491a   Section        0  timer.o(i.rt_list_insert_after)
    rt_list_insert_after                     0x0800491b   Thumb Code    14  timer.o(i.rt_list_insert_after)
    i.rt_list_insert_before                  0x08004928   Section        0  ipc.o(i.rt_list_insert_before)
    rt_list_insert_before                    0x08004929   Thumb Code    14  ipc.o(i.rt_list_insert_before)
    i.rt_list_isempty                        0x08004936   Section        0  ipc.o(i.rt_list_isempty)
    rt_list_isempty                          0x08004937   Thumb Code    16  ipc.o(i.rt_list_isempty)
    i.rt_list_isempty                        0x08004946   Section        0  timer.o(i.rt_list_isempty)
    rt_list_isempty                          0x08004947   Thumb Code    16  timer.o(i.rt_list_isempty)
    i.rt_list_isempty                        0x08004956   Section        0  cmd.o(i.rt_list_isempty)
    rt_list_isempty                          0x08004957   Thumb Code    16  cmd.o(i.rt_list_isempty)
    i.rt_list_len                            0x08004966   Section        0  cmd.o(i.rt_list_len)
    rt_list_len                              0x08004967   Thumb Code    20  cmd.o(i.rt_list_len)
    i.rt_list_remove                         0x0800497a   Section        0  object.o(i.rt_list_remove)
    rt_list_remove                           0x0800497b   Thumb Code    18  object.o(i.rt_list_remove)
    i.rt_list_remove                         0x0800498c   Section        0  thread.o(i.rt_list_remove)
    rt_list_remove                           0x0800498d   Thumb Code    18  thread.o(i.rt_list_remove)
    i.rt_list_remove                         0x0800499e   Section        0  timer.o(i.rt_list_remove)
    rt_list_remove                           0x0800499f   Thumb Code    18  timer.o(i.rt_list_remove)
    i.rt_malloc                              0x080049b0   Section        0  kservice.o(i.rt_malloc)
    i.rt_memcpy                              0x080049d4   Section        0  kservice.o(i.rt_memcpy)
    i.rt_memmove                             0x08004a50   Section        0  kservice.o(i.rt_memmove)
    i.rt_memory_info                         0x08004a94   Section        0  kservice.o(i.rt_memory_info)
    i.rt_memset                              0x08004ad8   Section        0  kservice.o(i.rt_memset)
    i.rt_object_allocate                     0x08004b20   Section        0  object.o(i.rt_object_allocate)
    i.rt_object_delete                       0x08004b74   Section        0  object.o(i.rt_object_delete)
    i.rt_object_detach                       0x08004b98   Section        0  object.o(i.rt_object_detach)
    i.rt_object_get_information              0x08004bb8   Section        0  object.o(i.rt_object_get_information)
    i.rt_object_init                         0x08004be0   Section        0  object.o(i.rt_object_init)
    i.rt_object_is_systemobject              0x08004c36   Section        0  object.o(i.rt_object_is_systemobject)
    i.rt_os_tick_callback                    0x08004c48   Section        0  board.o(i.rt_os_tick_callback)
    i.rt_schedule                            0x08004c58   Section        0  scheduler.o(i.rt_schedule)
    i.rt_schedule_insert_thread              0x08004d74   Section        0  scheduler.o(i.rt_schedule_insert_thread)
    i.rt_schedule_remove_thread              0x08004e10   Section        0  scheduler.o(i.rt_schedule_remove_thread)
    i.rt_sem_create                          0x08004e64   Section        0  ipc.o(i.rt_sem_create)
    i.rt_sem_init                            0x08004e8e   Section        0  ipc.o(i.rt_sem_init)
    i.rt_sem_release                         0x08004eb4   Section        0  ipc.o(i.rt_sem_release)
    i.rt_sem_take                            0x08004f06   Section        0  ipc.o(i.rt_sem_take)
    i.rt_show_version                        0x08004f7c   Section        0  kservice.o(i.rt_show_version)
    i.rt_smem_alloc                          0x08005040   Section        0  mem.o(i.rt_smem_alloc)
    i.rt_smem_free                           0x08005154   Section        0  mem.o(i.rt_smem_free)
    i.rt_smem_init                           0x08005190   Section        0  mem.o(i.rt_smem_init)
    i.rt_soft_timer_check                    0x08005280   Section        0  timer.o(i.rt_soft_timer_check)
    i.rt_sprintf                             0x0800533c   Section        0  kservice.o(i.rt_sprintf)
    i.rt_strerror                            0x08005360   Section        0  kservice.o(i.rt_strerror)
    i.rt_strncpy                             0x08005380   Section        0  kservice.o(i.rt_strncpy)
    i.rt_system_heap_init                    0x080053b4   Section        0  kservice.o(i.rt_system_heap_init)
    i.rt_system_scheduler_init               0x080053e8   Section        0  scheduler.o(i.rt_system_scheduler_init)
    i.rt_system_scheduler_start              0x0800541c   Section        0  scheduler.o(i.rt_system_scheduler_start)
    i.rt_system_timer_init                   0x08005444   Section        0  timer.o(i.rt_system_timer_init)
    i.rt_system_timer_thread_init            0x08005460   Section        0  timer.o(i.rt_system_timer_thread_init)
    i.rt_thread_create                       0x080054b4   Section        0  thread.o(i.rt_thread_create)
    i.rt_thread_defunct_dequeue              0x08005504   Section        0  idle.o(i.rt_thread_defunct_dequeue)
    i.rt_thread_defunct_enqueue              0x08005540   Section        0  idle.o(i.rt_thread_defunct_enqueue)
    i.rt_thread_delay                        0x0800555c   Section        0  thread.o(i.rt_thread_delay)
    i.rt_thread_idle_entry                   0x08005568   Section        0  idle.o(i.rt_thread_idle_entry)
    rt_thread_idle_entry                     0x08005569   Thumb Code     8  idle.o(i.rt_thread_idle_entry)
    i.rt_thread_idle_init                    0x08005570   Section        0  idle.o(i.rt_thread_idle_init)
    i.rt_thread_init                         0x080055d8   Section        0  thread.o(i.rt_thread_init)
    i.rt_thread_mdelay                       0x0800560c   Section        0  thread.o(i.rt_thread_mdelay)
    i.rt_thread_resume                       0x08005620   Section        0  thread.o(i.rt_thread_resume)
    i.rt_thread_self                         0x0800565c   Section        0  thread.o(i.rt_thread_self)
    i.rt_thread_sleep                        0x08005668   Section        0  thread.o(i.rt_thread_sleep)
    i.rt_thread_startup                      0x080056ac   Section        0  thread.o(i.rt_thread_startup)
    i.rt_thread_suspend                      0x080056d4   Section        0  thread.o(i.rt_thread_suspend)
    i.rt_tick_from_millisecond               0x0800571c   Section        0  clock.o(i.rt_tick_from_millisecond)
    i.rt_tick_get                            0x08005754   Section        0  clock.o(i.rt_tick_get)
    i.rt_tick_increase                       0x08005760   Section        0  clock.o(i.rt_tick_increase)
    i.rt_timer_check                         0x080057b0   Section        0  timer.o(i.rt_timer_check)
    i.rt_timer_control                       0x08005854   Section        0  timer.o(i.rt_timer_control)
    i.rt_timer_detach                        0x080058bc   Section        0  timer.o(i.rt_timer_detach)
    i.rt_timer_init                          0x080058e4   Section        0  timer.o(i.rt_timer_init)
    i.rt_timer_start                         0x08005914   Section        0  timer.o(i.rt_timer_start)
    i.rt_timer_stop                          0x08005a4c   Section        0  timer.o(i.rt_timer_stop)
    i.rt_vsnprintf                           0x08005a7c   Section        0  kservice.o(i.rt_vsnprintf)
    i.rt_vsprintf                            0x08005dbc   Section        0  kservice.o(i.rt_vsprintf)
    i.rti_board_end                          0x08005dd2   Section        0  components.o(i.rti_board_end)
    rti_board_end                            0x08005dd3   Thumb Code     4  components.o(i.rti_board_end)
    i.rti_board_start                        0x08005dd6   Section        0  components.o(i.rti_board_start)
    rti_board_start                          0x08005dd7   Thumb Code     4  components.o(i.rti_board_start)
    i.rti_end                                0x08005dda   Section        0  components.o(i.rti_end)
    rti_end                                  0x08005ddb   Thumb Code     4  components.o(i.rti_end)
    i.rti_start                              0x08005dde   Section        0  components.o(i.rti_start)
    rti_start                                0x08005ddf   Thumb Code     4  components.o(i.rti_start)
    i.rtthread_startup                       0x08005de2   Section        0  components.o(i.rtthread_startup)
    i.shell_auto_complete                    0x08005e0c   Section        0  shell.o(i.shell_auto_complete)
    shell_auto_complete                      0x08005e0d   Thumb Code    34  shell.o(i.shell_auto_complete)
    i.shell_test                             0x08005e3c   Section        0  app.o(i.shell_test)
    shell_test                               0x08005e3d   Thumb Code    44  app.o(i.shell_test)
    i.show_wait_queue                        0x08005e6c   Section        0  cmd.o(i.show_wait_queue)
    show_wait_queue                          0x08005e6d   Thumb Code    42  cmd.o(i.show_wait_queue)
    i.skip_atoi                              0x08005ea4   Section        0  kservice.o(i.skip_atoi)
    skip_atoi                                0x08005ea5   Thumb Code    38  kservice.o(i.skip_atoi)
    i.str_common                             0x08005eca   Section        0  msh.o(i.str_common)
    str_common                               0x08005ecb   Thumb Code    32  msh.o(i.str_common)
    i.tim_tick_init                          0x08005eec   Section        0  delay.o(i.tim_tick_init)
    i.uart_init                              0x08005f60   Section        0  board.o(i.uart_init)
    uart_init                                0x08005f61   Thumb Code    10  board.o(i.uart_init)
    i.usage_fault_track                      0x08005f6c   Section        0  cpuport.o(i.usage_fault_track)
    usage_fault_track                        0x08005f6d   Thumb Code   122  cpuport.o(i.usage_fault_track)
    i.version                                0x08006054   Section        0  cmd.o(i.version)
    .constdata                               0x0800605e   Section      290  kservice.o(.constdata)
    small_digits                             0x0800615e   Data          17  kservice.o(.constdata)
    large_digits                             0x0800616f   Data          17  kservice.o(.constdata)
    .constdata                               0x08006180   Section       56  log.o(.constdata)
    Lg2                                      0x08006180   Data          24  log.o(.constdata)
    Lg                                       0x08006198   Data          32  log.o(.constdata)
    .constdata                               0x080061b8   Section      129  ctype_o.o(.constdata)
    .constdata                               0x0800623c   Section        4  ctype_o.o(.constdata)
    table                                    0x0800623c   Data           4  ctype_o.o(.constdata)
    .constdata                               0x08006240   Section        8  qnan.o(.constdata)
    .conststring                             0x08006248   Section       88  kservice.o(.conststring)
    .conststring                             0x080062a0   Section       68  cmd.o(.conststring)
    .rodata.name                             0x080062e4   Section       35  app.o(.rodata.name)
    .rodata.name                             0x08006307   Section      220  cmd.o(.rodata.name)
    .rodata.name                             0x080063e3   Section      100  msh.o(.rodata.name)
    .rti_fn.0                                0x08006448   Section        4  components.o(.rti_fn.0)
    __tagsym$$used                           0x08006448   Number         0  components.o(.rti_fn.0)
    .rti_fn.0.end                            0x0800644c   Section        4  components.o(.rti_fn.0.end)
    __tagsym$$used                           0x0800644c   Number         0  components.o(.rti_fn.0.end)
    .rti_fn.1                                0x08006450   Section        4  board.o(.rti_fn.1)
    __tagsym$$used                           0x08006450   Number         0  board.o(.rti_fn.1)
    .rti_fn.1.end                            0x08006454   Section        4  components.o(.rti_fn.1.end)
    __tagsym$$used                           0x08006454   Number         0  components.o(.rti_fn.1.end)
    .rti_fn.6                                0x08006458   Section        4  shell.o(.rti_fn.6)
    __tagsym$$used                           0x08006458   Number         0  shell.o(.rti_fn.6)
    .rti_fn.6.end                            0x0800645c   Section        4  components.o(.rti_fn.6.end)
    __tagsym$$used                           0x0800645c   Number         0  components.o(.rti_fn.6.end)
    FSymTab                                  0x08006460   Section       12  app.o(FSymTab)
    __tagsym$$used                           0x08006460   Number         0  app.o(FSymTab)
    FSymTab                                  0x0800646c   Section       84  cmd.o(FSymTab)
    __tagsym$$used                           0x0800646c   Number         0  cmd.o(FSymTab)
    __tagsym$$used                           0x08006478   Number         0  cmd.o(FSymTab)
    __tagsym$$used                           0x08006484   Number         0  cmd.o(FSymTab)
    __tagsym$$used                           0x08006490   Number         0  cmd.o(FSymTab)
    __tagsym$$used                           0x0800649c   Number         0  cmd.o(FSymTab)
    __tagsym$$used                           0x080064a8   Number         0  cmd.o(FSymTab)
    __tagsym$$used                           0x080064b4   Number         0  cmd.o(FSymTab)
    FSymTab                                  0x080064c0   Section       36  msh.o(FSymTab)
    __tagsym$$used                           0x080064c0   Number         0  msh.o(FSymTab)
    __tagsym$$used                           0x080064cc   Number         0  msh.o(FSymTab)
    __tagsym$$used                           0x080064d8   Number         0  msh.o(FSymTab)
    .data                                    0x20000000   Section        8  app.o(.data)
    .data                                    0x20000008   Section       12  delay.o(.data)
    tim_tick_count                           0x20000008   Data           8  delay.o(.data)
    periodic_callback                        0x20000010   Data           4  delay.o(.data)
    .data                                    0x20000014   Section        8  usart.o(.data)
    .data                                    0x2000001c   Section       36  soft_i2c.o(.data)
    level                                    0x2000001c   Data           4  soft_i2c.o(.data)
    .data                                    0x20000040   Section       15  bq769.o(.data)
    Gain                                     0x20000040   Data           4  bq769.o(.data)
    iGain                                    0x20000044   Data           2  bq769.o(.data)
    Adcoffset                                0x20000046   Data           1  bq769.o(.data)
    TempSampleMode                           0x20000047   Data           1  bq769.o(.data)
    RsnsValue                                0x20000048   Data           4  bq769.o(.data)
    CELL_BAL_VALUE                           0x2000004c   Data           3  bq769.o(.data)
    .data                                    0x20000050   Section       13  bms_monitor.o(.data)
    FlagVoltage                              0x20000050   Data           1  bms_monitor.o(.data)
    FlagCellTemp                             0x20000051   Data           1  bms_monitor.o(.data)
    FlagBatCurrent                           0x20000052   Data           1  bms_monitor.o(.data)
    CountVoltage                             0x20000054   Data           2  bms_monitor.o(.data)
    CountCellTemp                            0x20000056   Data           2  bms_monitor.o(.data)
    CountBatCurrent                          0x20000058   Data           2  bms_monitor.o(.data)
    CountSysModeSleep                        0x2000005a   Data           2  bms_monitor.o(.data)
    SysMode                                  0x2000005c   Data           1  bms_monitor.o(.data)
    .data                                    0x2000005d   Section       20  stm32f10x_rcc.o(.data)
    APBAHBPrescTable                         0x2000005d   Data          16  stm32f10x_rcc.o(.data)
    ADCPrescTable                            0x2000006d   Data           4  stm32f10x_rcc.o(.data)
    .data                                    0x20000074   Section        4  clock.o(.data)
    rt_tick                                  0x20000074   Data           4  clock.o(.data)
    .data                                    0x20000078   Section        8  idle.o(.data)
    _rt_thread_defunct                       0x20000078   Data           8  idle.o(.data)
    .data                                    0x20000080   Section        1  irq.o(.data)
    .data                                    0x20000084   Section       56  kservice.o(.data)
    __rt_errno                               0x20000084   Data           4  kservice.o(.data)
    rt_errno_strs                            0x20000088   Data          48  kservice.o(.data)
    system_heap                              0x200000b8   Data           4  kservice.o(.data)
    .data                                    0x200000bc   Section       80  object.o(.data)
    _object_container                        0x200000bc   Data          80  object.o(.data)
    .data                                    0x2000010c   Section       13  scheduler.o(.data)
    rt_scheduler_lock_nest                   0x20000110   Data           2  scheduler.o(.data)
    .data                                    0x2000011c   Section       24  timer.o(.data)
    _timer_list                              0x2000011c   Data           8  timer.o(.data)
    _soft_timer_status                       0x20000124   Data           1  timer.o(.data)
    _soft_timer_list                         0x20000128   Data           8  timer.o(.data)
    random_nr                                0x20000130   Data           4  timer.o(.data)
    .data                                    0x20000134   Section       16  cpuport.o(.data)
    rt_exception_hook                        0x20000140   Data           4  cpuport.o(.data)
    .data                                    0x20000144   Section       16  shell.o(.data)
    finsh_prompt_custom                      0x20000150   Data           4  shell.o(.data)
    .data                                    0x20000154   Section        4  errno.o(.data)
    _errno                                   0x20000154   Data           4  errno.o(.data)
    .bss                                     0x20000158   Section    15360  board.o(.bss)
    rt_heap                                  0x20000158   Data       15360  board.o(.bss)
    .bss                                     0x20003d58   Section      128  usart.o(.bss)
    .bss                                     0x20003dd8   Section      120  bq769.o(.bss)
    AlertOps                                 0x20003dd8   Data          28  bq769.o(.bss)
    Registers                                0x20003df4   Data          56  bq769.o(.bss)
    .bss                                     0x20003e50   Section       76  bms_monitor.o(.bss)
    .bss                                     0x20003e9c   Section      376  idle.o(.bss)
    idle                                     0x20003e9c   Data         120  idle.o(.bss)
    rt_thread_stack                          0x20003f14   Data         256  idle.o(.bss)
    .bss                                     0x20004014   Section      256  kservice.o(.bss)
    rt_log_buf                               0x20004014   Data         256  kservice.o(.bss)
    .bss                                     0x20004114   Section      256  scheduler.o(.bss)
    .bss                                     0x20004214   Section      632  timer.o(.bss)
    _timer_thread                            0x20004214   Data         120  timer.o(.bss)
    _timer_thread_stack                      0x2000428c   Data         512  timer.o(.bss)
    .bss                                     0x2000448c   Section      257  shell.o(.bss)
    finsh_prompt                             0x2000448c   Data         257  shell.o(.bss)
    STACK                                    0x20004590   Section     1024  startup_stm32f10x_md.o(STACK)

    Global Symbols

    Symbol Name                              Value     Ov Type        Size  Object(Section)

    BuildAttributes$$THM_ISAv4$P$D$K$B$S$PE$A:L22UL41UL21$X:L11$S22US41US21$IEEE1$IW$USESV6$~STKCKD$USESV7$~SHL$OTIME$ROPI$IEEEX$EBA8$MICROLIB$REQ8$PRES8$EABIv2 0x00000000   Number         0  anon$$obj.o ABSOLUTE
    __ARM_use_no_argv                        0x00000000   Number         0  main.o ABSOLUTE
    __cpp_initialize__aeabi_                  - Undefined Weak Reference
    __cxa_finalize                            - Undefined Weak Reference
    _clock_init                               - Undefined Weak Reference
    _microlib_exit                            - Undefined Weak Reference
    __Vectors_Size                           0x000000ec   Number         0  startup_stm32f10x_md.o ABSOLUTE
    __Vectors                                0x08000000   Data           4  startup_stm32f10x_md.o(RESET)
    __Vectors_End                            0x080000ec   Data           0  startup_stm32f10x_md.o(RESET)
    __main                                   0x080000ed   Thumb Code     0  entry.o(.ARM.Collect$$$$00000000)
    _main_stk                                0x080000ed   Thumb Code     0  entry2.o(.ARM.Collect$$$$00000001)
    _main_scatterload                        0x080000f1   Thumb Code     0  entry5.o(.ARM.Collect$$$$00000004)
    __main_after_scatterload                 0x080000f5   Thumb Code     0  entry5.o(.ARM.Collect$$$$00000004)
    _main_clock                              0x080000f5   Thumb Code     0  entry7b.o(.ARM.Collect$$$$00000008)
    _main_cpp_init                           0x080000f5   Thumb Code     0  entry8b.o(.ARM.Collect$$$$0000000A)
    _main_init                               0x080000f5   Thumb Code     0  entry9a.o(.ARM.Collect$$$$0000000B)
    __rt_final_cpp                           0x080000fd   Thumb Code     0  entry10a.o(.ARM.Collect$$$$0000000D)
    __rt_final_exit                          0x080000fd   Thumb Code     0  entry11a.o(.ARM.Collect$$$$0000000F)
    Reset_Handler                            0x08000101   Thumb Code     8  startup_stm32f10x_md.o(.text)
    SVC_Handler                              0x08000113   Thumb Code     2  startup_stm32f10x_md.o(.text)
    SysTick_Handler                          0x08000119   Thumb Code     2  startup_stm32f10x_md.o(.text)
    ADC1_2_IRQHandler                        0x0800011b   Thumb Code     0  startup_stm32f10x_md.o(.text)
    CAN1_RX1_IRQHandler                      0x0800011b   Thumb Code     0  startup_stm32f10x_md.o(.text)
    CAN1_SCE_IRQHandler                      0x0800011b   Thumb Code     0  startup_stm32f10x_md.o(.text)
    DMA1_Channel1_IRQHandler                 0x0800011b   Thumb Code     0  startup_stm32f10x_md.o(.text)
    DMA1_Channel2_IRQHandler                 0x0800011b   Thumb Code     0  startup_stm32f10x_md.o(.text)
    DMA1_Channel3_IRQHandler                 0x0800011b   Thumb Code     0  startup_stm32f10x_md.o(.text)
    DMA1_Channel4_IRQHandler                 0x0800011b   Thumb Code     0  startup_stm32f10x_md.o(.text)
    DMA1_Channel5_IRQHandler                 0x0800011b   Thumb Code     0  startup_stm32f10x_md.o(.text)
    DMA1_Channel6_IRQHandler                 0x0800011b   Thumb Code     0  startup_stm32f10x_md.o(.text)
    DMA1_Channel7_IRQHandler                 0x0800011b   Thumb Code     0  startup_stm32f10x_md.o(.text)
    EXTI0_IRQHandler                         0x0800011b   Thumb Code     0  startup_stm32f10x_md.o(.text)
    EXTI1_IRQHandler                         0x0800011b   Thumb Code     0  startup_stm32f10x_md.o(.text)
    EXTI2_IRQHandler                         0x0800011b   Thumb Code     0  startup_stm32f10x_md.o(.text)
    EXTI3_IRQHandler                         0x0800011b   Thumb Code     0  startup_stm32f10x_md.o(.text)
    EXTI4_IRQHandler                         0x0800011b   Thumb Code     0  startup_stm32f10x_md.o(.text)
    EXTI9_5_IRQHandler                       0x0800011b   Thumb Code     0  startup_stm32f10x_md.o(.text)
    FLASH_IRQHandler                         0x0800011b   Thumb Code     0  startup_stm32f10x_md.o(.text)
    I2C1_ER_IRQHandler                       0x0800011b   Thumb Code     0  startup_stm32f10x_md.o(.text)
    I2C1_EV_IRQHandler                       0x0800011b   Thumb Code     0  startup_stm32f10x_md.o(.text)
    I2C2_ER_IRQHandler                       0x0800011b   Thumb Code     0  startup_stm32f10x_md.o(.text)
    I2C2_EV_IRQHandler                       0x0800011b   Thumb Code     0  startup_stm32f10x_md.o(.text)
    PVD_IRQHandler                           0x0800011b   Thumb Code     0  startup_stm32f10x_md.o(.text)
    RCC_IRQHandler                           0x0800011b   Thumb Code     0  startup_stm32f10x_md.o(.text)
    RTCAlarm_IRQHandler                      0x0800011b   Thumb Code     0  startup_stm32f10x_md.o(.text)
    RTC_IRQHandler                           0x0800011b   Thumb Code     0  startup_stm32f10x_md.o(.text)
    SPI1_IRQHandler                          0x0800011b   Thumb Code     0  startup_stm32f10x_md.o(.text)
    SPI2_IRQHandler                          0x0800011b   Thumb Code     0  startup_stm32f10x_md.o(.text)
    TAMPER_IRQHandler                        0x0800011b   Thumb Code     0  startup_stm32f10x_md.o(.text)
    TIM1_BRK_IRQHandler                      0x0800011b   Thumb Code     0  startup_stm32f10x_md.o(.text)
    TIM1_CC_IRQHandler                       0x0800011b   Thumb Code     0  startup_stm32f10x_md.o(.text)
    TIM1_TRG_COM_IRQHandler                  0x0800011b   Thumb Code     0  startup_stm32f10x_md.o(.text)
    TIM1_UP_IRQHandler                       0x0800011b   Thumb Code     0  startup_stm32f10x_md.o(.text)
    TIM2_IRQHandler                          0x0800011b   Thumb Code     0  startup_stm32f10x_md.o(.text)
    TIM4_IRQHandler                          0x0800011b   Thumb Code     0  startup_stm32f10x_md.o(.text)
    USART2_IRQHandler                        0x0800011b   Thumb Code     0  startup_stm32f10x_md.o(.text)
    USART3_IRQHandler                        0x0800011b   Thumb Code     0  startup_stm32f10x_md.o(.text)
    USBWakeUp_IRQHandler                     0x0800011b   Thumb Code     0  startup_stm32f10x_md.o(.text)
    USB_HP_CAN1_TX_IRQHandler                0x0800011b   Thumb Code     0  startup_stm32f10x_md.o(.text)
    USB_LP_CAN1_RX0_IRQHandler               0x0800011b   Thumb Code     0  startup_stm32f10x_md.o(.text)
    WWDG_IRQHandler                          0x0800011b   Thumb Code     0  startup_stm32f10x_md.o(.text)
    rt_hw_interrupt_disable                  0x08000125   Thumb Code     8  context_rvds.o(.text)
    rt_hw_interrupt_enable                   0x0800012d   Thumb Code     6  context_rvds.o(.text)
    rt_hw_context_switch                     0x08000133   Thumb Code    32  context_rvds.o(.text)
    rt_hw_context_switch_interrupt           0x08000133   Thumb Code     0  context_rvds.o(.text)
    PendSV_Handler                           0x08000153   Thumb Code    60  context_rvds.o(.text)
    rt_hw_context_switch_to                  0x0800018f   Thumb Code    64  context_rvds.o(.text)
    rt_hw_interrupt_thread_switch            0x080001cf   Thumb Code     2  context_rvds.o(.text)
    HardFault_Handler                        0x080001d1   Thumb Code    52  context_rvds.o(.text)
    __rt_ctype_table                         0x08000221   Thumb Code     4  ctype_o.o(.text)
    __aeabi_memcpy                           0x08000229   Thumb Code    36  memcpya.o(.text)
    __aeabi_memcpy4                          0x08000229   Thumb Code     0  memcpya.o(.text)
    __aeabi_memcpy8                          0x08000229   Thumb Code     0  memcpya.o(.text)
    __aeabi_memset                           0x0800024d   Thumb Code    14  memseta.o(.text)
    __aeabi_memset4                          0x0800024d   Thumb Code     0  memseta.o(.text)
    __aeabi_memset8                          0x0800024d   Thumb Code     0  memseta.o(.text)
    __aeabi_memclr                           0x0800025b   Thumb Code     4  memseta.o(.text)
    __aeabi_memclr4                          0x0800025b   Thumb Code     0  memseta.o(.text)
    __aeabi_memclr8                          0x0800025b   Thumb Code     0  memseta.o(.text)
    _memset$wrapper                          0x0800025f   Thumb Code    18  memseta.o(.text)
    strcat                                   0x08000271   Thumb Code    24  strcat.o(.text)
    strncpy                                  0x08000289   Thumb Code    24  strncpy.o(.text)
    strlen                                   0x080002a1   Thumb Code    14  strlen.o(.text)
    strcmp                                   0x080002af   Thumb Code    28  strcmp.o(.text)
    strcpy                                   0x080002cb   Thumb Code    18  strcpy.o(.text)
    strncmp                                  0x080002dd   Thumb Code    30  strncmp.o(.text)
    atoi                                     0x080002fb   Thumb Code    26  atoi.o(.text)
    __aeabi_fadd                             0x08000315   Thumb Code   164  fadd.o(.text)
    __aeabi_fsub                             0x080003b9   Thumb Code     6  fadd.o(.text)
    __aeabi_frsub                            0x080003bf   Thumb Code     6  fadd.o(.text)
    __aeabi_fmul                             0x080003c5   Thumb Code   100  fmul.o(.text)
    __aeabi_fdiv                             0x08000429   Thumb Code   124  fdiv.o(.text)
    __aeabi_dadd                             0x080004a5   Thumb Code   322  dadd.o(.text)
    __aeabi_dsub                             0x080005e7   Thumb Code     6  dadd.o(.text)
    __aeabi_drsub                            0x080005ed   Thumb Code     6  dadd.o(.text)
    __aeabi_dmul                             0x080005f3   Thumb Code   228  dmul.o(.text)
    __aeabi_ddiv                             0x080006d7   Thumb Code   222  ddiv.o(.text)
    __aeabi_i2f                              0x080007b5   Thumb Code    18  fflti.o(.text)
    __aeabi_ui2f                             0x080007c7   Thumb Code    10  ffltui.o(.text)
    __aeabi_i2d                              0x080007d1   Thumb Code    34  dflti.o(.text)
    __aeabi_ui2d                             0x080007f3   Thumb Code    26  dfltui.o(.text)
    __aeabi_f2iz                             0x0800080d   Thumb Code    50  ffixi.o(.text)
    __aeabi_f2uiz                            0x0800083f   Thumb Code    40  ffixui.o(.text)
    __aeabi_f2d                              0x08000867   Thumb Code    38  f2d.o(.text)
    __aeabi_d2f                              0x0800088d   Thumb Code    56  d2f.o(.text)
    __aeabi_cfcmpeq                          0x080008c5   Thumb Code     0  cfcmple.o(.text)
    __aeabi_cfcmple                          0x080008c5   Thumb Code    20  cfcmple.o(.text)
    __aeabi_cfrcmple                         0x080008d9   Thumb Code    20  cfrcmple.o(.text)
    __aeabi_llsl                             0x080008ed   Thumb Code    30  llshl.o(.text)
    _ll_shift_l                              0x080008ed   Thumb Code     0  llshl.o(.text)
    __aeabi_llsr                             0x0800090b   Thumb Code    32  llushr.o(.text)
    _ll_ushift_r                             0x0800090b   Thumb Code     0  llushr.o(.text)
    __aeabi_lasr                             0x0800092b   Thumb Code    36  llsshr.o(.text)
    _ll_sshift_r                             0x0800092b   Thumb Code     0  llsshr.o(.text)
    strtol                                   0x0800094f   Thumb Code   112  strtol.o(.text)
    __I$use$fp                               0x080009bf   Thumb Code     0  iusefp.o(.text)
    _float_round                             0x080009bf   Thumb Code    18  fepilogue.o(.text)
    _float_epilogue                          0x080009d1   Thumb Code    92  fepilogue.o(.text)
    _double_round                            0x08000a2d   Thumb Code    30  depilogue.o(.text)
    _double_epilogue                         0x08000a4b   Thumb Code   156  depilogue.o(.text)
    __ARM_scalbn                             0x08000ae7   Thumb Code    46  dscalb.o(.text)
    scalbn                                   0x08000ae7   Thumb Code     0  dscalb.o(.text)
    __aeabi_cdcmpeq                          0x08000b15   Thumb Code     0  cdcmple.o(.text)
    __aeabi_cdcmple                          0x08000b15   Thumb Code    48  cdcmple.o(.text)
    __scatterload                            0x08000b45   Thumb Code    28  init.o(.text)
    __scatterload_rt2                        0x08000b45   Thumb Code     0  init.o(.text)
    _strtoul                                 0x08000b69   Thumb Code   158  _strtoul.o(.text)
    _chval                                   0x08000c07   Thumb Code    28  _chval.o(.text)
    __decompress                             0x08000c23   Thumb Code     0  __dczerorl2.o(.text)
    __decompress1                            0x08000c23   Thumb Code    86  __dczerorl2.o(.text)
    main                                     0x08000c79   Thumb Code    10  components.o(i.$Sub$$main)
    BMS_MonitorInit                          0x08000d6d   Thumb Code    36  bms_monitor.o(i.BMS_MonitorInit)
    BQ769X0_EntryShip                        0x08000f79   Thumb Code    28  bq769.o(i.BQ769X0_EntryShip)
    BQ769X0_GetADCGainOffset                 0x08000f95   Thumb Code   170  bq769.o(i.BQ769X0_GetADCGainOffset)
    BQ769X0_Initialize                       0x08001055   Thumb Code   206  bq769.o(i.BQ769X0_Initialize)
    BQ769X0_UpdateBatVolt                    0x080013b1   Thumb Code   106  bq769.o(i.BQ769X0_UpdateBatVolt)
    BQ769X0_UpdateCellVolt                   0x08001431   Thumb Code   116  bq769.o(i.BQ769X0_UpdateCellVolt)
    BQ769X0_UpdateCurrent                    0x080014b9   Thumb Code   116  bq769.o(i.BQ769X0_UpdateCurrent)
    BQ769X0_UpdateTsTemp                     0x08001549   Thumb Code   188  bq769.o(i.BQ769X0_UpdateTsTemp)
    BQ769X0_Wakeup                           0x08001621   Thumb Code    50  bq769.o(i.BQ769X0_Wakeup)
    BusFault_Handler                         0x0800183d   Thumb Code     4  stm32f10x_it.o(i.BusFault_Handler)
    DebugMon_Handler                         0x08001885   Thumb Code     2  stm32f10x_it.o(i.DebugMon_Handler)
    EXTI15_10_IRQHandler                     0x08001887   Thumb Code    26  bq769.o(i.EXTI15_10_IRQHandler)
    EXTI_ClearITPendingBit                   0x080018a1   Thumb Code     6  stm32f10x_exti.o(i.EXTI_ClearITPendingBit)
    EXTI_GetITStatus                         0x080018ad   Thumb Code    34  stm32f10x_exti.o(i.EXTI_GetITStatus)
    GPIO_Init                                0x080018e3   Thumb Code   278  stm32f10x_gpio.o(i.GPIO_Init)
    GPIO_ReadInputDataBit                    0x080019f9   Thumb Code    18  stm32f10x_gpio.o(i.GPIO_ReadInputDataBit)
    GPIO_SetBits                             0x08001a0b   Thumb Code     4  stm32f10x_gpio.o(i.GPIO_SetBits)
    GPIO_WriteBit                            0x08001a0f   Thumb Code    10  stm32f10x_gpio.o(i.GPIO_WriteBit)
    I2C_BusInitialize                        0x08001b69   Thumb Code    12  soft_i2c.o(i.I2C_BusInitialize)
    I2C_TransferMessages                     0x08001d4f   Thumb Code   182  soft_i2c.o(i.I2C_TransferMessages)
    MemManage_Handler                        0x08001e8b   Thumb Code     4  stm32f10x_it.o(i.MemManage_Handler)
    NMI_Handler                              0x08001e8f   Thumb Code     2  stm32f10x_it.o(i.NMI_Handler)
    NVIC_Init                                0x08001e91   Thumb Code   100  misc.o(i.NVIC_Init)
    NVIC_PriorityGroupConfig                 0x08001f01   Thumb Code    10  misc.o(i.NVIC_PriorityGroupConfig)
    RCC_APB1PeriphClockCmd                   0x08001f15   Thumb Code    26  stm32f10x_rcc.o(i.RCC_APB1PeriphClockCmd)
    RCC_APB2PeriphClockCmd                   0x08001f35   Thumb Code    26  stm32f10x_rcc.o(i.RCC_APB2PeriphClockCmd)
    RCC_GetClocksFreq                        0x08001f55   Thumb Code   192  stm32f10x_rcc.o(i.RCC_GetClocksFreq)
    SystemInit                               0x08002191   Thumb Code    78  system_stm32f10x.o(i.SystemInit)
    TIM3_IRQHandler                          0x080021f1   Thumb Code    60  delay.o(i.TIM3_IRQHandler)
    TIM_ClearFlag                            0x08002239   Thumb Code     6  stm32f10x_tim.o(i.TIM_ClearFlag)
    TIM_ClearITPendingBit                    0x0800223f   Thumb Code     6  stm32f10x_tim.o(i.TIM_ClearITPendingBit)
    TIM_Cmd                                  0x08002245   Thumb Code    24  stm32f10x_tim.o(i.TIM_Cmd)
    TIM_GetITStatus                          0x0800225d   Thumb Code    34  stm32f10x_tim.o(i.TIM_GetITStatus)
    TIM_ITConfig                             0x0800227f   Thumb Code    18  stm32f10x_tim.o(i.TIM_ITConfig)
    TIM_TimeBaseInit                         0x08002291   Thumb Code   122  stm32f10x_tim.o(i.TIM_TimeBaseInit)
    USART1_IRQHandler                        0x0800245d   Thumb Code    94  usart.o(i.USART1_IRQHandler)
    USART1_Init                              0x080024d1   Thumb Code    32  usart.o(i.USART1_Init)
    USART_Cmd                                0x08002571   Thumb Code    24  stm32f10x_usart.o(i.USART_Cmd)
    USART_GetFlagStatus                      0x08002589   Thumb Code    26  stm32f10x_usart.o(i.USART_GetFlagStatus)
    USART_GetITStatus                        0x080025a3   Thumb Code    84  stm32f10x_usart.o(i.USART_GetITStatus)
    USART_ITConfig                           0x080025f7   Thumb Code    74  stm32f10x_usart.o(i.USART_ITConfig)
    USART_Init                               0x08002641   Thumb Code   210  stm32f10x_usart.o(i.USART_Init)
    USART_ReceiveData                        0x08002719   Thumb Code    10  stm32f10x_usart.o(i.USART_ReceiveData)
    USART_SendData                           0x08002723   Thumb Code     8  stm32f10x_usart.o(i.USART_SendData)
    UsageFault_Handler                       0x0800272b   Thumb Code     4  stm32f10x_it.o(i.UsageFault_Handler)
    __aeabi_errno_addr                       0x08002731   Thumb Code     4  errno.o(i.__aeabi_errno_addr)
    __rt_errno_addr                          0x08002731   Thumb Code     0  errno.o(i.__aeabi_errno_addr)
    __kernel_poly                            0x08002739   Thumb Code   170  poly.o(i.__kernel_poly)
    __mathlib_dbl_divzero                    0x080027e5   Thumb Code    12  dunder.o(i.__mathlib_dbl_divzero)
    __mathlib_dbl_infnan                     0x080027f5   Thumb Code     6  dunder.o(i.__mathlib_dbl_infnan)
    __mathlib_dbl_invalid                    0x080027fb   Thumb Code    12  dunder.o(i.__mathlib_dbl_invalid)
    __rt_ffs                                 0x08002809   Thumb Code    70  kservice.o(i.__rt_ffs)
    __scatterload_copy                       0x08002855   Thumb Code    14  handlers.o(i.__scatterload_copy)
    __scatterload_null                       0x08002863   Thumb Code     2  handlers.o(i.__scatterload_null)
    __scatterload_zeroinit                   0x08002865   Thumb Code    14  handlers.o(i.__scatterload_zeroinit)
    __set_errno                              0x08002875   Thumb Code     6  errno.o(i.__set_errno)
    app_init                                 0x08002b7d   Thumb Code    76  app.o(i.app_init)
    cmd_free                                 0x08002cd9   Thumb Code    64  msh.o(i.cmd_free)
    cmd_list                                 0x08002d59   Thumb Code   122  cmd.o(i.cmd_list)
    cmd_ps                                   0x08002e89   Thumb Code    14  msh.o(i.cmd_ps)
    finsh_get_prompt                         0x08002ebd   Thumb Code    68  shell.o(i.finsh_get_prompt)
    finsh_getchar                            0x08002f19   Thumb Code     8  shell.o(i.finsh_getchar)
    finsh_set_prompt_mode                    0x08002f21   Thumb Code    22  shell.o(i.finsh_set_prompt_mode)
    finsh_system_function_init               0x08002f3d   Thumb Code    10  shell.o(i.finsh_system_function_init)
    finsh_system_init                        0x08002f51   Thumb Code    98  shell.o(i.finsh_system_init)
    finsh_thread_entry                       0x08002fed   Thumb Code   930  shell.o(i.finsh_thread_entry)
    list_mailbox                             0x080034e5   Thumb Code   224  cmd.o(i.list_mailbox)
    list_sem                                 0x08003641   Thumb Code   216  cmd.o(i.list_sem)
    list_thread                              0x08003779   Thumb Code   302  cmd.o(i.list_thread)
    list_timer                               0x08003965   Thumb Code   212  cmd.o(i.list_timer)
    log                                      0x08003b0d   Thumb Code   808  log.o(i.log)
    $Super$$main                             0x08003e69   Thumb Code    16  main.o(i.main)
    main_thread_entry                        0x08003e79   Thumb Code    14  components.o(i.main_thread_entry)
    msh_auto_complete                        0x08003f71   Thumb Code   120  msh.o(i.msh_auto_complete)
    msh_exec                                 0x08003ff5   Thumb Code    84  msh.o(i.msh_exec)
    msh_help                                 0x080040a1   Thumb Code    48  msh.o(i.msh_help)
    rt_application_init                      0x08004411   Thumb Code    34  components.o(i.rt_application_init)
    rt_calloc                                0x08004441   Thumb Code    34  kservice.o(i.rt_calloc)
    rt_components_board_init                 0x08004465   Thumb Code    20  components.o(i.rt_components_board_init)
    rt_components_init                       0x08004481   Thumb Code    20  components.o(i.rt_components_init)
    rt_enter_critical                        0x080044dd   Thumb Code    28  scheduler.o(i.rt_enter_critical)
    rt_exit_critical                         0x080044fd   Thumb Code    60  scheduler.o(i.rt_exit_critical)
    rt_free                                  0x08004541   Thumb Code    30  kservice.o(i.rt_free)
    rt_heap_begin_get                        0x08004561   Thumb Code     4  board.o(i.rt_heap_begin_get)
    rt_heap_end_get                          0x08004569   Thumb Code     4  board.o(i.rt_heap_end_get)
    rt_hw_board_init                         0x08004571   Thumb Code    30  board.o(i.rt_hw_board_init)
    rt_hw_console_getchar                    0x08004591   Thumb Code    80  board.o(i.rt_hw_console_getchar)
    rt_hw_console_output                     0x080045f1   Thumb Code    66  board.o(i.rt_hw_console_output)
    rt_hw_hard_fault_exception               0x08004639   Thumb Code   198  cpuport.o(i.rt_hw_hard_fault_exception)
    rt_hw_stack_init                         0x08004841   Thumb Code    70  cpuport.o(i.rt_hw_stack_init)
    rt_interrupt_enter                       0x0800488d   Thumb Code    26  irq.o(i.rt_interrupt_enter)
    rt_interrupt_leave                       0x080048ad   Thumb Code    26  irq.o(i.rt_interrupt_leave)
    rt_kprintf                               0x080048cd   Thumb Code    46  kservice.o(i.rt_kprintf)
    rt_malloc                                0x080049b1   Thumb Code    32  kservice.o(i.rt_malloc)
    rt_memcpy                                0x080049d5   Thumb Code   124  kservice.o(i.rt_memcpy)
    rt_memmove                               0x08004a51   Thumb Code    66  kservice.o(i.rt_memmove)
    rt_memory_info                           0x08004a95   Thumb Code    64  kservice.o(i.rt_memory_info)
    rt_memset                                0x08004ad9   Thumb Code    72  kservice.o(i.rt_memset)
    rt_object_allocate                       0x08004b21   Thumb Code    84  object.o(i.rt_object_allocate)
    rt_object_delete                         0x08004b75   Thumb Code    36  object.o(i.rt_object_delete)
    rt_object_detach                         0x08004b99   Thumb Code    30  object.o(i.rt_object_detach)
    rt_object_get_information                0x08004bb9   Thumb Code    36  object.o(i.rt_object_get_information)
    rt_object_init                           0x08004be1   Thumb Code    86  object.o(i.rt_object_init)
    rt_object_is_systemobject                0x08004c37   Thumb Code    18  object.o(i.rt_object_is_systemobject)
    rt_os_tick_callback                      0x08004c49   Thumb Code    16  board.o(i.rt_os_tick_callback)
    rt_schedule                              0x08004c59   Thumb Code   262  scheduler.o(i.rt_schedule)
    rt_schedule_insert_thread                0x08004d75   Thumb Code   142  scheduler.o(i.rt_schedule_insert_thread)
    rt_schedule_remove_thread                0x08004e11   Thumb Code    76  scheduler.o(i.rt_schedule_remove_thread)
    rt_sem_create                            0x08004e65   Thumb Code    42  ipc.o(i.rt_sem_create)
    rt_sem_init                              0x08004e8f   Thumb Code    38  ipc.o(i.rt_sem_init)
    rt_sem_release                           0x08004eb5   Thumb Code    82  ipc.o(i.rt_sem_release)
    rt_sem_take                              0x08004f07   Thumb Code   116  ipc.o(i.rt_sem_take)
    rt_show_version                          0x08004f7d   Thumb Code    42  kservice.o(i.rt_show_version)
    rt_smem_alloc                            0x08005041   Thumb Code   276  mem.o(i.rt_smem_alloc)
    rt_smem_free                             0x08005155   Thumb Code    58  mem.o(i.rt_smem_free)
    rt_smem_init                             0x08005191   Thumb Code   172  mem.o(i.rt_smem_init)
    rt_soft_timer_check                      0x08005281   Thumb Code   178  timer.o(i.rt_soft_timer_check)
    rt_sprintf                               0x0800533d   Thumb Code    34  kservice.o(i.rt_sprintf)
    rt_strerror                              0x08005361   Thumb Code    26  kservice.o(i.rt_strerror)
    rt_strncpy                               0x08005381   Thumb Code    52  kservice.o(i.rt_strncpy)
    rt_system_heap_init                      0x080053b5   Thumb Code    40  kservice.o(i.rt_system_heap_init)
    rt_system_scheduler_init                 0x080053e9   Thumb Code    38  scheduler.o(i.rt_system_scheduler_init)
    rt_system_scheduler_start                0x0800541d   Thumb Code    36  scheduler.o(i.rt_system_scheduler_start)
    rt_system_timer_init                     0x08005445   Thumb Code    24  timer.o(i.rt_system_timer_init)
    rt_system_timer_thread_init              0x08005461   Thumb Code    58  timer.o(i.rt_system_timer_thread_init)
    rt_thread_create                         0x080054b5   Thumb Code    80  thread.o(i.rt_thread_create)
    rt_thread_defunct_dequeue                0x08005505   Thumb Code    56  idle.o(i.rt_thread_defunct_dequeue)
    rt_thread_defunct_enqueue                0x08005541   Thumb Code    24  idle.o(i.rt_thread_defunct_enqueue)
    rt_thread_delay                          0x0800555d   Thumb Code    12  thread.o(i.rt_thread_delay)
    rt_thread_idle_init                      0x08005571   Thumb Code    82  idle.o(i.rt_thread_idle_init)
    rt_thread_init                           0x080055d9   Thumb Code    52  thread.o(i.rt_thread_init)
    rt_thread_mdelay                         0x0800560d   Thumb Code    20  thread.o(i.rt_thread_mdelay)
    rt_thread_resume                         0x08005621   Thumb Code    60  thread.o(i.rt_thread_resume)
    rt_thread_self                           0x0800565d   Thumb Code     6  thread.o(i.rt_thread_self)
    rt_thread_sleep                          0x08005669   Thumb Code    68  thread.o(i.rt_thread_sleep)
    rt_thread_startup                        0x080056ad   Thumb Code    40  thread.o(i.rt_thread_startup)
    rt_thread_suspend                        0x080056d5   Thumb Code    72  thread.o(i.rt_thread_suspend)
    rt_tick_from_millisecond                 0x0800571d   Thumb Code    56  clock.o(i.rt_tick_from_millisecond)
    rt_tick_get                              0x08005755   Thumb Code     6  clock.o(i.rt_tick_get)
    rt_tick_increase                         0x08005761   Thumb Code    74  clock.o(i.rt_tick_increase)
    rt_timer_check                           0x080057b1   Thumb Code   160  timer.o(i.rt_timer_check)
    rt_timer_control                         0x08005855   Thumb Code   104  timer.o(i.rt_timer_control)
    rt_timer_detach                          0x080058bd   Thumb Code    40  timer.o(i.rt_timer_detach)
    rt_timer_init                            0x080058e5   Thumb Code    46  timer.o(i.rt_timer_init)
    rt_timer_start                           0x08005915   Thumb Code   292  timer.o(i.rt_timer_start)
    rt_timer_stop                            0x08005a4d   Thumb Code    48  timer.o(i.rt_timer_stop)
    rt_vsnprintf                             0x08005a7d   Thumb Code   824  kservice.o(i.rt_vsnprintf)
    rt_vsprintf                              0x08005dbd   Thumb Code    22  kservice.o(i.rt_vsprintf)
    rtthread_startup                         0x08005de3   Thumb Code    42  components.o(i.rtthread_startup)
    tim_tick_init                            0x08005eed   Thumb Code   110  delay.o(i.tim_tick_init)
    version                                  0x08006055   Thumb Code    10  cmd.o(i.version)
    __lowest_bit_bitmap                      0x0800605e   Data         256  kservice.o(.constdata)
    __ctype_table                            0x080061b8   Data         129  ctype_o.o(.constdata)
    __mathlib_zero                           0x08006240   Data           8  qnan.o(.constdata)
    __fsym_shell_test_name                   0x080062e4   Data          11  app.o(.rodata.name)
    __fsym_shell_test_desc                   0x080062ef   Data          24  app.o(.rodata.name)
    __fsym_clear_name                        0x08006307   Data           6  cmd.o(.rodata.name)
    __fsym_clear_desc                        0x0800630d   Data          26  cmd.o(.rodata.name)
    __fsym_version_name                      0x08006327   Data           8  cmd.o(.rodata.name)
    __fsym_version_desc                      0x0800632f   Data          35  cmd.o(.rodata.name)
    __fsym_list_thread_name                  0x08006352   Data          12  cmd.o(.rodata.name)
    __fsym_list_thread_desc                  0x0800635e   Data          12  cmd.o(.rodata.name)
    __fsym_list_sem_name                     0x0800636a   Data           9  cmd.o(.rodata.name)
    __fsym_list_sem_desc                     0x08006373   Data          25  cmd.o(.rodata.name)
    __fsym_list_mailbox_name                 0x0800638c   Data          13  cmd.o(.rodata.name)
    __fsym_list_mailbox_desc                 0x08006399   Data          24  cmd.o(.rodata.name)
    __fsym_list_timer_name                   0x080063b1   Data          11  cmd.o(.rodata.name)
    __fsym_list_timer_desc                   0x080063bc   Data          21  cmd.o(.rodata.name)
    __fsym_list_name                         0x080063d1   Data           5  cmd.o(.rodata.name)
    __fsym_list_desc                         0x080063d6   Data          13  cmd.o(.rodata.name)
    __fsym_help_name                         0x080063e3   Data           5  msh.o(.rodata.name)
    __fsym_help_desc                         0x080063e8   Data          22  msh.o(.rodata.name)
    __fsym_ps_name                           0x080063fe   Data           3  msh.o(.rodata.name)
    __fsym_ps_desc                           0x08006401   Data          28  msh.o(.rodata.name)
    __fsym_free_name                         0x0800641d   Data           5  msh.o(.rodata.name)
    __fsym_free_desc                         0x08006422   Data          37  msh.o(.rodata.name)
    __rt_init_rti_start                      0x08006448   Data           4  components.o(.rti_fn.0)
    __rt_init_rti_board_start                0x0800644c   Data           4  components.o(.rti_fn.0.end)
    __rt_init_uart_init                      0x08006450   Data           4  board.o(.rti_fn.1)
    __rt_init_rti_board_end                  0x08006454   Data           4  components.o(.rti_fn.1.end)
    __rt_init_finsh_system_init              0x08006458   Data           4  shell.o(.rti_fn.6)
    __rt_init_rti_end                        0x0800645c   Data           4  components.o(.rti_fn.6.end)
    FSymTab$$Base                            0x08006460   Number         0  app.o(FSymTab)
    __fsym_shell_test                        0x08006460   Data          12  app.o(FSymTab)
    __fsym_clear                             0x0800646c   Data          12  cmd.o(FSymTab)
    __fsym_version                           0x08006478   Data          12  cmd.o(FSymTab)
    __fsym_list_thread                       0x08006484   Data          12  cmd.o(FSymTab)
    __fsym_list_sem                          0x08006490   Data          12  cmd.o(FSymTab)
    __fsym_list_mailbox                      0x0800649c   Data          12  cmd.o(FSymTab)
    __fsym_list_timer                        0x080064a8   Data          12  cmd.o(FSymTab)
    __fsym_list                              0x080064b4   Data          12  cmd.o(FSymTab)
    __fsym_help                              0x080064c0   Data          12  msh.o(FSymTab)
    __fsym_ps                                0x080064cc   Data          12  msh.o(FSymTab)
    __fsym_free                              0x080064d8   Data          12  msh.o(FSymTab)
    FSymTab$$Limit                           0x080064e4   Number         0  msh.o(FSymTab)
    Region$$Table$$Base                      0x080064e4   Number         0  anon$$obj.o(Region$$Table)
    Region$$Table$$Limit                     0x08006504   Number         0  anon$$obj.o(Region$$Table)
    led_time                                 0x20000000   Data           2  app.o(.data)
    led_thread                               0x20000004   Data           4  app.o(.data)
    rx_in                                    0x20000014   Data           2  usart.o(.data)
    rx_out                                   0x20000016   Data           2  usart.o(.data)
    uart_rx_sem                              0x20000018   Data           4  usart.o(.data)
    i2c1                                     0x20000020   Data          32  soft_i2c.o(.data)
    rt_interrupt_nest                        0x20000080   Data           1  irq.o(.data)
    rt_thread_ready_priority_group           0x2000010c   Data           4  scheduler.o(.data)
    rt_current_thread                        0x20000114   Data           4  scheduler.o(.data)
    rt_current_priority                      0x20000118   Data           1  scheduler.o(.data)
    rt_interrupt_from_thread                 0x20000134   Data           4  cpuport.o(.data)
    rt_interrupt_to_thread                   0x20000138   Data           4  cpuport.o(.data)
    rt_thread_switch_interrupt_flag          0x2000013c   Data           4  cpuport.o(.data)
    _syscall_table_begin                     0x20000144   Data           4  shell.o(.data)
    _syscall_table_end                       0x20000148   Data           4  shell.o(.data)
    shell                                    0x2000014c   Data           4  shell.o(.data)
    rx_buf                                   0x20003d58   Data         128  usart.o(.bss)
    BQ769X0_SampleData                       0x20003e2c   Data          36  bq769.o(.bss)
    BMS_MonitorData                          0x20003e50   Data          76  bms_monitor.o(.bss)
    rt_thread_priority_table                 0x20004114   Data         256  scheduler.o(.bss)
    __initial_sp                             0x20004990   Data           0  startup_stm32f10x_md.o(STACK)



==============================================================================

Memory Map of the image

  Image Entry point : 0x080000ed

  Load Region LR_IROM1 (Base: 0x08000000, Size: 0x0000665c, Max: 0x00010000, ABSOLUTE, COMPRESSED[0x00006598])

    Execution Region ER_IROM1 (Exec base: 0x08000000, Load base: 0x08000000, Size: 0x00006504, Max: 0x00010000, ABSOLUTE)

    Exec Addr    Load Addr    Size         Type   Attr      Idx    E Section Name        Object

    0x08000000   0x08000000   0x000000ec   Data   RO         3805    RESET               startup_stm32f10x_md.o
    0x080000ec   0x080000ec   0x00000000   Code   RO         5282  * .ARM.Collect$$$$00000000  mc_w.l(entry.o)
    0x080000ec   0x080000ec   0x00000004   Code   RO         5386    .ARM.Collect$$$$00000001  mc_w.l(entry2.o)
    0x080000f0   0x080000f0   0x00000004   Code   RO         5389    .ARM.Collect$$$$00000004  mc_w.l(entry5.o)
    0x080000f4   0x080000f4   0x00000000   Code   RO         5391    .ARM.Collect$$$$00000008  mc_w.l(entry7b.o)
    0x080000f4   0x080000f4   0x00000000   Code   RO         5393    .ARM.Collect$$$$0000000A  mc_w.l(entry8b.o)
    0x080000f4   0x080000f4   0x00000008   Code   RO         5394    .ARM.Collect$$$$0000000B  mc_w.l(entry9a.o)
    0x080000fc   0x080000fc   0x00000000   Code   RO         5396    .ARM.Collect$$$$0000000D  mc_w.l(entry10a.o)
    0x080000fc   0x080000fc   0x00000000   Code   RO         5398    .ARM.Collect$$$$0000000F  mc_w.l(entry11a.o)
    0x080000fc   0x080000fc   0x00000004   Code   RO         5387    .ARM.Collect$$$$00002712  mc_w.l(entry2.o)
    0x08000100   0x08000100   0x00000024   Code   RO         3806    .text               startup_stm32f10x_md.o
    0x08000124   0x08000124   0x000000fc   Code   RO         4944    .text               context_rvds.o
    0x08000220   0x08000220   0x00000008   Code   RO         5287    .text               mc_w.l(ctype_o.o)
    0x08000228   0x08000228   0x00000024   Code   RO         5317    .text               mc_w.l(memcpya.o)
    0x0800024c   0x0800024c   0x00000024   Code   RO         5319    .text               mc_w.l(memseta.o)
    0x08000270   0x08000270   0x00000018   Code   RO         5321    .text               mc_w.l(strcat.o)
    0x08000288   0x08000288   0x00000018   Code   RO         5323    .text               mc_w.l(strncpy.o)
    0x080002a0   0x080002a0   0x0000000e   Code   RO         5325    .text               mc_w.l(strlen.o)
    0x080002ae   0x080002ae   0x0000001c   Code   RO         5327    .text               mc_w.l(strcmp.o)
    0x080002ca   0x080002ca   0x00000012   Code   RO         5329    .text               mc_w.l(strcpy.o)
    0x080002dc   0x080002dc   0x0000001e   Code   RO         5331    .text               mc_w.l(strncmp.o)
    0x080002fa   0x080002fa   0x0000001a   Code   RO         5335    .text               mc_w.l(atoi.o)
    0x08000314   0x08000314   0x000000b0   Code   RO         5337    .text               mf_w.l(fadd.o)
    0x080003c4   0x080003c4   0x00000064   Code   RO         5339    .text               mf_w.l(fmul.o)
    0x08000428   0x08000428   0x0000007c   Code   RO         5341    .text               mf_w.l(fdiv.o)
    0x080004a4   0x080004a4   0x0000014e   Code   RO         5343    .text               mf_w.l(dadd.o)
    0x080005f2   0x080005f2   0x000000e4   Code   RO         5345    .text               mf_w.l(dmul.o)
    0x080006d6   0x080006d6   0x000000de   Code   RO         5347    .text               mf_w.l(ddiv.o)
    0x080007b4   0x080007b4   0x00000012   Code   RO         5349    .text               mf_w.l(fflti.o)
    0x080007c6   0x080007c6   0x0000000a   Code   RO         5351    .text               mf_w.l(ffltui.o)
    0x080007d0   0x080007d0   0x00000022   Code   RO         5353    .text               mf_w.l(dflti.o)
    0x080007f2   0x080007f2   0x0000001a   Code   RO         5355    .text               mf_w.l(dfltui.o)
    0x0800080c   0x0800080c   0x00000032   Code   RO         5357    .text               mf_w.l(ffixi.o)
    0x0800083e   0x0800083e   0x00000028   Code   RO         5359    .text               mf_w.l(ffixui.o)
    0x08000866   0x08000866   0x00000026   Code   RO         5361    .text               mf_w.l(f2d.o)
    0x0800088c   0x0800088c   0x00000038   Code   RO         5363    .text               mf_w.l(d2f.o)
    0x080008c4   0x080008c4   0x00000014   Code   RO         5365    .text               mf_w.l(cfcmple.o)
    0x080008d8   0x080008d8   0x00000014   Code   RO         5367    .text               mf_w.l(cfrcmple.o)
    0x080008ec   0x080008ec   0x0000001e   Code   RO         5400    .text               mc_w.l(llshl.o)
    0x0800090a   0x0800090a   0x00000020   Code   RO         5402    .text               mc_w.l(llushr.o)
    0x0800092a   0x0800092a   0x00000024   Code   RO         5404    .text               mc_w.l(llsshr.o)
    0x0800094e   0x0800094e   0x00000070   Code   RO         5413    .text               mc_w.l(strtol.o)
    0x080009be   0x080009be   0x00000000   Code   RO         5415    .text               mc_w.l(iusefp.o)
    0x080009be   0x080009be   0x0000006e   Code   RO         5416    .text               mf_w.l(fepilogue.o)
    0x08000a2c   0x08000a2c   0x000000ba   Code   RO         5418    .text               mf_w.l(depilogue.o)
    0x08000ae6   0x08000ae6   0x0000002e   Code   RO         5420    .text               mf_w.l(dscalb.o)
    0x08000b14   0x08000b14   0x00000030   Code   RO         5422    .text               mf_w.l(cdcmple.o)
    0x08000b44   0x08000b44   0x00000024   Code   RO         5424    .text               mc_w.l(init.o)
    0x08000b68   0x08000b68   0x0000009e   Code   RO         5426    .text               mc_w.l(_strtoul.o)
    0x08000c06   0x08000c06   0x0000001c   Code   RO         5428    .text               mc_w.l(_chval.o)
    0x08000c22   0x08000c22   0x00000056   Code   RO         5438    .text               mc_w.l(__dczerorl2.o)
    0x08000c78   0x08000c78   0x0000000a   Code   RO         3943    i.$Sub$$main        components.o
    0x08000c82   0x08000c82   0x00000002   PAD
    0x08000c84   0x08000c84   0x000000e8   Code   RO          758    i.BMS_MonitorBattery  bms_monitor.o
    0x08000d6c   0x08000d6c   0x00000034   Code   RO          759    i.BMS_MonitorInit   bms_monitor.o
    0x08000da0   0x08000da0   0x00000070   Code   RO          763    i.BMS_MonitorSysMode  bms_monitor.o
    0x08000e10   0x08000e10   0x000000d4   Code   RO          499    i.BQ769X0_AlertyHandler  bq769.o
    0x08000ee4   0x08000ee4   0x00000094   Code   RO          501    i.BQ769X0_Configuration  bq769.o
    0x08000f78   0x08000f78   0x0000001c   Code   RO          503    i.BQ769X0_EntryShip  bq769.o
    0x08000f94   0x08000f94   0x000000c0   Code   RO          504    i.BQ769X0_GetADCGainOffset  bq769.o
    0x08001054   0x08001054   0x000000e0   Code   RO          505    i.BQ769X0_Initialize  bq769.o
    0x08001134   0x08001134   0x000000c4   Code   RO          510    i.BQ769X0_ReadBlockWithCRC  bq769.o
    0x080011f8   0x080011f8   0x00000084   Code   RO          512    i.BQ769X0_ReadRegisterByteWithCRC  bq769.o
    0x0800127c   0x0800127c   0x000000ec   Code   RO          513    i.BQ769X0_ReadRegisterWordWithCRC  bq769.o
    0x08001368   0x08001368   0x00000024   Code   RO          515    i.BQ769X0_TS1_SetInMode  bq769.o
    0x0800138c   0x0800138c   0x00000024   Code   RO          516    i.BQ769X0_TS1_SetOutMode  bq769.o
    0x080013b0   0x080013b0   0x00000080   Code   RO          519    i.BQ769X0_UpdateBatVolt  bq769.o
    0x08001430   0x08001430   0x00000088   Code   RO          520    i.BQ769X0_UpdateCellVolt  bq769.o
    0x080014b8   0x080014b8   0x00000090   Code   RO          521    i.BQ769X0_UpdateCurrent  bq769.o
    0x08001548   0x08001548   0x000000d8   Code   RO          523    i.BQ769X0_UpdateTsTemp  bq769.o
    0x08001620   0x08001620   0x00000038   Code   RO          524    i.BQ769X0_Wakeup    bq769.o
    0x08001658   0x08001658   0x0000009c   Code   RO          525    i.BQ769X0_WriteBlockWithCRC  bq769.o
    0x080016f4   0x080016f4   0x00000064   Code   RO          527    i.BQ769X0_WriteRegisterByteWithCRC  bq769.o
    0x08001758   0x08001758   0x000000e4   Code   RO          764    i.Bms_MonitorTask   bms_monitor.o
    0x0800183c   0x0800183c   0x00000004   Code   RO         3810    i.BusFault_Handler  stm32f10x_it.o
    0x08001840   0x08001840   0x00000044   Code   RO          529    i.CRC8              bq769.o
    0x08001884   0x08001884   0x00000002   Code   RO         3811    i.DebugMon_Handler  stm32f10x_it.o
    0x08001886   0x08001886   0x0000001a   Code   RO          530    i.EXTI15_10_IRQHandler  bq769.o
    0x080018a0   0x080018a0   0x0000000c   Code   RO         1623    i.EXTI_ClearITPendingBit  stm32f10x_exti.o
    0x080018ac   0x080018ac   0x00000028   Code   RO         1627    i.EXTI_GetITStatus  stm32f10x_exti.o
    0x080018d4   0x080018d4   0x0000000e   Code   RO          370    i.GET_SDA           soft_i2c.o
    0x080018e2   0x080018e2   0x00000116   Code   RO         1976    i.GPIO_Init         stm32f10x_gpio.o
    0x080019f8   0x080019f8   0x00000012   Code   RO         1980    i.GPIO_ReadInputDataBit  stm32f10x_gpio.o
    0x08001a0a   0x08001a0a   0x00000004   Code   RO         1984    i.GPIO_SetBits      stm32f10x_gpio.o
    0x08001a0e   0x08001a0e   0x0000000a   Code   RO         1987    i.GPIO_WriteBit     stm32f10x_gpio.o
    0x08001a18   0x08001a18   0x00000010   Code   RO          371    i.I2C1_Lock         soft_i2c.o
    0x08001a28   0x08001a28   0x00000002   Code   RO          372    i.I2C1_LockInit     soft_i2c.o
    0x08001a2a   0x08001a2a   0x00000002   PAD
    0x08001a2c   0x08001a2c   0x00000010   Code   RO          373    i.I2C1_Unlock       soft_i2c.o
    0x08001a3c   0x08001a3c   0x000000ec   Code   RO          374    i.I2C_BitSendAddress  soft_i2c.o
    0x08001b28   0x08001b28   0x00000040   Code   RO          375    i.I2C_BusHardwareInitialize  soft_i2c.o
    0x08001b68   0x08001b68   0x00000010   Code   RO          376    i.I2C_BusInitialize  soft_i2c.o
    0x08001b78   0x08001b78   0x00000048   Code   RO          377    i.I2C_ReadByte      soft_i2c.o
    0x08001bc0   0x08001bc0   0x00000068   Code   RO          378    i.I2C_RecvBytes     soft_i2c.o
    0x08001c28   0x08001c28   0x0000002a   Code   RO          379    i.I2C_Restart       soft_i2c.o
    0x08001c52   0x08001c52   0x00000048   Code   RO          380    i.I2C_SendAddress   soft_i2c.o
    0x08001c9a   0x08001c9a   0x00000072   Code   RO          381    i.I2C_SendBytes     soft_i2c.o
    0x08001d0c   0x08001d0c   0x00000018   Code   RO          382    i.I2C_Start         soft_i2c.o
    0x08001d24   0x08001d24   0x0000002a   Code   RO          383    i.I2C_Stop          soft_i2c.o
    0x08001d4e   0x08001d4e   0x000000b6   Code   RO          384    i.I2C_TransferMessages  soft_i2c.o
    0x08001e04   0x08001e04   0x00000086   Code   RO          385    i.I2C_WriteByte     soft_i2c.o
    0x08001e8a   0x08001e8a   0x00000004   Code   RO         3812    i.MemManage_Handler  stm32f10x_it.o
    0x08001e8e   0x08001e8e   0x00000002   Code   RO         3813    i.NMI_Handler       stm32f10x_it.o
    0x08001e90   0x08001e90   0x00000070   Code   RO          825    i.NVIC_Init         misc.o
    0x08001f00   0x08001f00   0x00000014   Code   RO          826    i.NVIC_PriorityGroupConfig  misc.o
    0x08001f14   0x08001f14   0x00000020   Code   RO         2392    i.RCC_APB1PeriphClockCmd  stm32f10x_rcc.o
    0x08001f34   0x08001f34   0x00000020   Code   RO         2394    i.RCC_APB2PeriphClockCmd  stm32f10x_rcc.o
    0x08001f54   0x08001f54   0x000000d4   Code   RO         2402    i.RCC_GetClocksFreq  stm32f10x_rcc.o
    0x08002028   0x08002028   0x00000010   Code   RO          386    i.SCL_H             soft_i2c.o
    0x08002038   0x08002038   0x00000010   Code   RO          387    i.SCL_L             soft_i2c.o
    0x08002048   0x08002048   0x00000010   Code   RO          388    i.SDA_H             soft_i2c.o
    0x08002058   0x08002058   0x00000010   Code   RO          389    i.SDA_L             soft_i2c.o
    0x08002068   0x08002068   0x00000020   Code   RO          390    i.SDA_SetInMode     soft_i2c.o
    0x08002088   0x08002088   0x00000020   Code   RO          391    i.SDA_SetOutMode    soft_i2c.o
    0x080020a8   0x080020a8   0x00000008   Code   RO         3871    i.SetSysClock       system_stm32f10x.o
    0x080020b0   0x080020b0   0x000000e0   Code   RO         3872    i.SetSysClockTo72   system_stm32f10x.o
    0x08002190   0x08002190   0x00000060   Code   RO         3874    i.SystemInit        system_stm32f10x.o
    0x080021f0   0x080021f0   0x00000048   Code   RO          260    i.TIM3_IRQHandler   delay.o
    0x08002238   0x08002238   0x00000006   Code   RO         3020    i.TIM_ClearFlag     stm32f10x_tim.o
    0x0800223e   0x0800223e   0x00000006   Code   RO         3021    i.TIM_ClearITPendingBit  stm32f10x_tim.o
    0x08002244   0x08002244   0x00000018   Code   RO         3026    i.TIM_Cmd           stm32f10x_tim.o
    0x0800225c   0x0800225c   0x00000022   Code   RO         3047    i.TIM_GetITStatus   stm32f10x_tim.o
    0x0800227e   0x0800227e   0x00000012   Code   RO         3051    i.TIM_ITConfig      stm32f10x_tim.o
    0x08002290   0x08002290   0x000000a4   Code   RO         3097    i.TIM_TimeBaseInit  stm32f10x_tim.o
    0x08002334   0x08002334   0x000000bc   Code   RO          531    i.TempChange        bq769.o
    0x080023f0   0x080023f0   0x0000006c   Code   RO          319    i.USART1_IO_Init    usart.o
    0x0800245c   0x0800245c   0x00000074   Code   RO          320    i.USART1_IRQHandler  usart.o
    0x080024d0   0x080024d0   0x0000002c   Code   RO          321    i.USART1_Init       usart.o
    0x080024fc   0x080024fc   0x00000074   Code   RO          322    i.USART1_func_Init  usart.o
    0x08002570   0x08002570   0x00000018   Code   RO         3562    i.USART_Cmd         stm32f10x_usart.o
    0x08002588   0x08002588   0x0000001a   Code   RO         3565    i.USART_GetFlagStatus  stm32f10x_usart.o
    0x080025a2   0x080025a2   0x00000054   Code   RO         3566    i.USART_GetITStatus  stm32f10x_usart.o
    0x080025f6   0x080025f6   0x0000004a   Code   RO         3568    i.USART_ITConfig    stm32f10x_usart.o
    0x08002640   0x08002640   0x000000d8   Code   RO         3569    i.USART_Init        stm32f10x_usart.o
    0x08002718   0x08002718   0x0000000a   Code   RO         3576    i.USART_ReceiveData  stm32f10x_usart.o
    0x08002722   0x08002722   0x00000008   Code   RO         3579    i.USART_SendData    stm32f10x_usart.o
    0x0800272a   0x0800272a   0x00000004   Code   RO         3814    i.UsageFault_Handler  stm32f10x_it.o
    0x0800272e   0x0800272e   0x00000002   PAD
    0x08002730   0x08002730   0x00000008   Code   RO         5406    i.__aeabi_errno_addr  mc_w.l(errno.o)
    0x08002738   0x08002738   0x000000aa   Code   RO         5383    i.__kernel_poly     m_ws.l(poly.o)
    0x080027e2   0x080027e2   0x00000002   PAD
    0x080027e4   0x080027e4   0x00000010   Code   RO         5369    i.__mathlib_dbl_divzero  m_ws.l(dunder.o)
    0x080027f4   0x080027f4   0x00000006   Code   RO         5370    i.__mathlib_dbl_infnan  m_ws.l(dunder.o)
    0x080027fa   0x080027fa   0x0000000c   Code   RO         5372    i.__mathlib_dbl_invalid  m_ws.l(dunder.o)
    0x08002806   0x08002806   0x00000002   PAD
    0x08002808   0x08002808   0x0000004c   Code   RO         4242    i.__rt_ffs          kservice.o
    0x08002854   0x08002854   0x0000000e   Code   RO         5432    i.__scatterload_copy  mc_w.l(handlers.o)
    0x08002862   0x08002862   0x00000002   Code   RO         5433    i.__scatterload_null  mc_w.l(handlers.o)
    0x08002864   0x08002864   0x0000000e   Code   RO         5434    i.__scatterload_zeroinit  mc_w.l(handlers.o)
    0x08002872   0x08002872   0x00000002   PAD
    0x08002874   0x08002874   0x0000000c   Code   RO         5408    i.__set_errno       mc_w.l(errno.o)
    0x08002880   0x08002880   0x0000000a   Code   RO         4243    i._heap_lock        kservice.o
    0x0800288a   0x0800288a   0x0000000a   Code   RO         4244    i._heap_unlock      kservice.o
    0x08002894   0x08002894   0x00000014   Code   RO         4069    i._ipc_list_resume  ipc.o
    0x080028a8   0x080028a8   0x0000006e   Code   RO         4071    i._ipc_list_suspend  ipc.o
    0x08002916   0x08002916   0x00000010   Code   RO         4072    i._ipc_object_init  ipc.o
    0x08002926   0x08002926   0x0000006c   Code   RO         5092    i._msh_exec_cmd     msh.o
    0x08002992   0x08002992   0x00000002   PAD
    0x08002994   0x08002994   0x00000028   Code   RO         4618    i._scheduler_get_highest_priority_thread  scheduler.o
    0x080029bc   0x080029bc   0x00000034   Code   RO         4697    i._thread_exit      thread.o
    0x080029f0   0x080029f0   0x00000080   Code   RO         4698    i._thread_init      thread.o
    0x08002a70   0x08002a70   0x0000002c   Code   RO         4699    i._thread_timeout   thread.o
    0x08002a9c   0x08002a9c   0x00000042   Code   RO         4820    i._timer_init       timer.o
    0x08002ade   0x08002ade   0x00000038   Code   RO         4821    i._timer_list_next_timeout  timer.o
    0x08002b16   0x08002b16   0x0000001c   Code   RO         4822    i._timer_remove     timer.o
    0x08002b32   0x08002b32   0x00000002   PAD
    0x08002b34   0x08002b34   0x00000048   Code   RO         4823    i._timer_thread_entry  timer.o
    0x08002b7c   0x08002b7c   0x0000004c   Code   RO           50    i.app_init          app.o
    0x08002bc8   0x08002bc8   0x000000fc   Code   RO         4948    i.bus_fault_track   cpuport.o
    0x08002cc4   0x08002cc4   0x00000014   Code   RO         5007    i.clear             cmd.o
    0x08002cd8   0x08002cd8   0x00000080   Code   RO         5093    i.cmd_free          msh.o
    0x08002d58   0x08002d58   0x00000130   Code   RO         5008    i.cmd_list          cmd.o
    0x08002e88   0x08002e88   0x0000000e   Code   RO         5094    i.cmd_ps            msh.o
    0x08002e96   0x08002e96   0x00000026   Code   RO          392    i.delay_us          soft_i2c.o
    0x08002ebc   0x08002ebc   0x0000005c   Code   RO         5192    i.finsh_get_prompt  shell.o
    0x08002f18   0x08002f18   0x00000008   Code   RO         5194    i.finsh_getchar     shell.o
    0x08002f20   0x08002f20   0x0000001c   Code   RO         5197    i.finsh_set_prompt_mode  shell.o
    0x08002f3c   0x08002f3c   0x00000014   Code   RO         5198    i.finsh_system_function_init  shell.o
    0x08002f50   0x08002f50   0x0000009c   Code   RO         5199    i.finsh_system_init  shell.o
    0x08002fec   0x08002fec   0x000003c4   Code   RO         5200    i.finsh_thread_entry  shell.o
    0x080033b0   0x080033b0   0x00000080   Code   RO         4949    i.hard_fault_track  cpuport.o
    0x08003430   0x08003430   0x0000002a   Code   RO         5009    i.list_find_init    cmd.o
    0x0800345a   0x0800345a   0x00000088   Code   RO         5010    i.list_get_next     cmd.o
    0x080034e2   0x080034e2   0x00000002   PAD
    0x080034e4   0x080034e4   0x0000015c   Code   RO         5011    i.list_mailbox      cmd.o
    0x08003640   0x08003640   0x00000138   Code   RO         5012    i.list_sem          cmd.o
    0x08003778   0x08003778   0x000001ec   Code   RO         5013    i.list_thread       cmd.o
    0x08003964   0x08003964   0x000001a8   Code   RO         5014    i.list_timer        cmd.o
    0x08003b0c   0x08003b0c   0x0000035c   Code   RO         5273    i.log               m_ws.l(log.o)
    0x08003e68   0x08003e68   0x00000010   Code   RO            1    i.main              main.o
    0x08003e78   0x08003e78   0x0000000e   Code   RO         3944    i.main_thread_entry  components.o
    0x08003e86   0x08003e86   0x00000002   PAD
    0x08003e88   0x08003e88   0x000000e8   Code   RO         4950    i.mem_manage_fault_track  cpuport.o
    0x08003f70   0x08003f70   0x00000084   Code   RO         5095    i.msh_auto_complete  msh.o
    0x08003ff4   0x08003ff4   0x0000006c   Code   RO         5096    i.msh_exec          msh.o
    0x08004060   0x08004060   0x00000040   Code   RO         5097    i.msh_get_cmd       msh.o
    0x080040a0   0x080040a0   0x00000064   Code   RO         5098    i.msh_help          msh.o
    0x08004104   0x08004104   0x000000f0   Code   RO         5099    i.msh_split         msh.o
    0x080041f4   0x080041f4   0x0000001c   Code   RO         5015    i.object_split      cmd.o
    0x08004210   0x08004210   0x00000066   Code   RO         4484    i.plug_holes        mem.o
    0x08004276   0x08004276   0x00000002   PAD
    0x08004278   0x08004278   0x00000198   Code   RO         4246    i.print_number      kservice.o
    0x08004410   0x08004410   0x00000030   Code   RO         3945    i.rt_application_init  components.o
    0x08004440   0x08004440   0x00000022   Code   RO         4247    i.rt_calloc         kservice.o
    0x08004462   0x08004462   0x00000002   PAD
    0x08004464   0x08004464   0x0000001c   Code   RO         3946    i.rt_components_board_init  components.o
    0x08004480   0x08004480   0x0000001c   Code   RO         3947    i.rt_components_init  components.o
    0x0800449c   0x0800449c   0x0000003e   Code   RO         4023    i.rt_defunct_execute  idle.o
    0x080044da   0x080044da   0x00000002   PAD
    0x080044dc   0x080044dc   0x00000020   Code   RO         4620    i.rt_enter_critical  scheduler.o
    0x080044fc   0x080044fc   0x00000044   Code   RO         4621    i.rt_exit_critical  scheduler.o
    0x08004540   0x08004540   0x0000001e   Code   RO         4248    i.rt_free           kservice.o
    0x0800455e   0x0800455e   0x00000002   PAD
    0x08004560   0x08004560   0x00000008   Code   RO          202    i.rt_heap_begin_get  board.o
    0x08004568   0x08004568   0x00000008   Code   RO          203    i.rt_heap_end_get   board.o
    0x08004570   0x08004570   0x0000001e   Code   RO          204    i.rt_hw_board_init  board.o
    0x0800458e   0x0800458e   0x00000002   PAD
    0x08004590   0x08004590   0x00000060   Code   RO          205    i.rt_hw_console_getchar  board.o
    0x080045f0   0x080045f0   0x00000048   Code   RO          206    i.rt_hw_console_output  board.o
    0x08004638   0x08004638   0x00000208   Code   RO         4954    i.rt_hw_hard_fault_exception  cpuport.o
    0x08004840   0x08004840   0x0000004c   Code   RO         4955    i.rt_hw_stack_init  cpuport.o
    0x0800488c   0x0800488c   0x00000020   Code   RO         4215    i.rt_interrupt_enter  irq.o
    0x080048ac   0x080048ac   0x00000020   Code   RO         4217    i.rt_interrupt_leave  irq.o
    0x080048cc   0x080048cc   0x00000034   Code   RO         4253    i.rt_kprintf        kservice.o
    0x08004900   0x08004900   0x00000006   Code   RO         4073    i.rt_list_init      ipc.o
    0x08004906   0x08004906   0x00000006   Code   RO         4824    i.rt_list_init      timer.o
    0x0800490c   0x0800490c   0x0000000e   Code   RO         4537    i.rt_list_insert_after  object.o
    0x0800491a   0x0800491a   0x0000000e   Code   RO         4825    i.rt_list_insert_after  timer.o
    0x08004928   0x08004928   0x0000000e   Code   RO         4074    i.rt_list_insert_before  ipc.o
    0x08004936   0x08004936   0x00000010   Code   RO         4075    i.rt_list_isempty   ipc.o
    0x08004946   0x08004946   0x00000010   Code   RO         4826    i.rt_list_isempty   timer.o
    0x08004956   0x08004956   0x00000010   Code   RO         5016    i.rt_list_isempty   cmd.o
    0x08004966   0x08004966   0x00000014   Code   RO         5017    i.rt_list_len       cmd.o
    0x0800497a   0x0800497a   0x00000012   Code   RO         4538    i.rt_list_remove    object.o
    0x0800498c   0x0800498c   0x00000012   Code   RO         4700    i.rt_list_remove    thread.o
    0x0800499e   0x0800499e   0x00000012   Code   RO         4827    i.rt_list_remove    timer.o
    0x080049b0   0x080049b0   0x00000024   Code   RO         4255    i.rt_malloc         kservice.o
    0x080049d4   0x080049d4   0x0000007c   Code   RO         4258    i.rt_memcpy         kservice.o
    0x08004a50   0x08004a50   0x00000042   Code   RO         4259    i.rt_memmove        kservice.o
    0x08004a92   0x08004a92   0x00000002   PAD
    0x08004a94   0x08004a94   0x00000044   Code   RO         4260    i.rt_memory_info    kservice.o
    0x08004ad8   0x08004ad8   0x00000048   Code   RO         4261    i.rt_memset         kservice.o
    0x08004b20   0x08004b20   0x00000054   Code   RO         4539    i.rt_object_allocate  object.o
    0x08004b74   0x08004b74   0x00000024   Code   RO         4540    i.rt_object_delete  object.o
    0x08004b98   0x08004b98   0x0000001e   Code   RO         4541    i.rt_object_detach  object.o
    0x08004bb6   0x08004bb6   0x00000002   PAD
    0x08004bb8   0x08004bb8   0x00000028   Code   RO         4543    i.rt_object_get_information  object.o
    0x08004be0   0x08004be0   0x00000056   Code   RO         4547    i.rt_object_init    object.o
    0x08004c36   0x08004c36   0x00000012   Code   RO         4548    i.rt_object_is_systemobject  object.o
    0x08004c48   0x08004c48   0x00000010   Code   RO          207    i.rt_os_tick_callback  board.o
    0x08004c58   0x08004c58   0x0000011c   Code   RO         4622    i.rt_schedule       scheduler.o
    0x08004d74   0x08004d74   0x0000009c   Code   RO         4623    i.rt_schedule_insert_thread  scheduler.o
    0x08004e10   0x08004e10   0x00000054   Code   RO         4624    i.rt_schedule_remove_thread  scheduler.o
    0x08004e64   0x08004e64   0x0000002a   Code   RO         4086    i.rt_sem_create     ipc.o
    0x08004e8e   0x08004e8e   0x00000026   Code   RO         4089    i.rt_sem_init       ipc.o
    0x08004eb4   0x08004eb4   0x00000052   Code   RO         4090    i.rt_sem_release    ipc.o
    0x08004f06   0x08004f06   0x00000074   Code   RO         4091    i.rt_sem_take       ipc.o
    0x08004f7a   0x08004f7a   0x00000002   PAD
    0x08004f7c   0x08004f7c   0x000000c4   Code   RO         4264    i.rt_show_version   kservice.o
    0x08005040   0x08005040   0x00000114   Code   RO         4485    i.rt_smem_alloc     mem.o
    0x08005154   0x08005154   0x0000003a   Code   RO         4487    i.rt_smem_free      mem.o
    0x0800518e   0x0800518e   0x00000002   PAD
    0x08005190   0x08005190   0x000000f0   Code   RO         4488    i.rt_smem_init      mem.o
    0x08005280   0x08005280   0x000000bc   Code   RO         4828    i.rt_soft_timer_check  timer.o
    0x0800533c   0x0800533c   0x00000022   Code   RO         4266    i.rt_sprintf        kservice.o
    0x0800535e   0x0800535e   0x00000002   PAD
    0x08005360   0x08005360   0x00000020   Code   RO         4271    i.rt_strerror       kservice.o
    0x08005380   0x08005380   0x00000034   Code   RO         4274    i.rt_strncpy        kservice.o
    0x080053b4   0x080053b4   0x00000034   Code   RO         4277    i.rt_system_heap_init  kservice.o
    0x080053e8   0x080053e8   0x00000034   Code   RO         4625    i.rt_system_scheduler_init  scheduler.o
    0x0800541c   0x0800541c   0x00000028   Code   RO         4626    i.rt_system_scheduler_start  scheduler.o
    0x08005444   0x08005444   0x0000001c   Code   RO         4829    i.rt_system_timer_init  timer.o
    0x08005460   0x08005460   0x00000054   Code   RO         4830    i.rt_system_timer_thread_init  timer.o
    0x080054b4   0x080054b4   0x00000050   Code   RO         4702    i.rt_thread_create  thread.o
    0x08005504   0x08005504   0x0000003c   Code   RO         4024    i.rt_thread_defunct_dequeue  idle.o
    0x08005540   0x08005540   0x0000001c   Code   RO         4025    i.rt_thread_defunct_enqueue  idle.o
    0x0800555c   0x0800555c   0x0000000c   Code   RO         4703    i.rt_thread_delay   thread.o
    0x08005568   0x08005568   0x00000008   Code   RO         4026    i.rt_thread_idle_entry  idle.o
    0x08005570   0x08005570   0x00000068   Code   RO         4028    i.rt_thread_idle_init  idle.o
    0x080055d8   0x080055d8   0x00000034   Code   RO         4708    i.rt_thread_init    thread.o
    0x0800560c   0x0800560c   0x00000014   Code   RO         4709    i.rt_thread_mdelay  thread.o
    0x08005620   0x08005620   0x0000003c   Code   RO         4710    i.rt_thread_resume  thread.o
    0x0800565c   0x0800565c   0x0000000c   Code   RO         4711    i.rt_thread_self    thread.o
    0x08005668   0x08005668   0x00000044   Code   RO         4712    i.rt_thread_sleep   thread.o
    0x080056ac   0x080056ac   0x00000028   Code   RO         4713    i.rt_thread_startup  thread.o
    0x080056d4   0x080056d4   0x00000048   Code   RO         4714    i.rt_thread_suspend  thread.o
    0x0800571c   0x0800571c   0x00000038   Code   RO         3905    i.rt_tick_from_millisecond  clock.o
    0x08005754   0x08005754   0x0000000c   Code   RO         3906    i.rt_tick_get       clock.o
    0x08005760   0x08005760   0x00000050   Code   RO         3908    i.rt_tick_increase  clock.o
    0x080057b0   0x080057b0   0x000000a4   Code   RO         4831    i.rt_timer_check    timer.o
    0x08005854   0x08005854   0x00000068   Code   RO         4832    i.rt_timer_control  timer.o
    0x080058bc   0x080058bc   0x00000028   Code   RO         4835    i.rt_timer_detach   timer.o
    0x080058e4   0x080058e4   0x0000002e   Code   RO         4836    i.rt_timer_init     timer.o
    0x08005912   0x08005912   0x00000002   PAD
    0x08005914   0x08005914   0x00000138   Code   RO         4838    i.rt_timer_start    timer.o
    0x08005a4c   0x08005a4c   0x00000030   Code   RO         4839    i.rt_timer_stop     timer.o
    0x08005a7c   0x08005a7c   0x00000340   Code   RO         4278    i.rt_vsnprintf      kservice.o
    0x08005dbc   0x08005dbc   0x00000016   Code   RO         4279    i.rt_vsprintf       kservice.o
    0x08005dd2   0x08005dd2   0x00000004   Code   RO         3948    i.rti_board_end     components.o
    0x08005dd6   0x08005dd6   0x00000004   Code   RO         3949    i.rti_board_start   components.o
    0x08005dda   0x08005dda   0x00000004   Code   RO         3950    i.rti_end           components.o
    0x08005dde   0x08005dde   0x00000004   Code   RO         3951    i.rti_start         components.o
    0x08005de2   0x08005de2   0x0000002a   Code   RO         3952    i.rtthread_startup  components.o
    0x08005e0c   0x08005e0c   0x00000030   Code   RO         5201    i.shell_auto_complete  shell.o
    0x08005e3c   0x08005e3c   0x00000030   Code   RO           55    i.shell_test        app.o
    0x08005e6c   0x08005e6c   0x00000038   Code   RO         5018    i.show_wait_queue   cmd.o
    0x08005ea4   0x08005ea4   0x00000026   Code   RO         4280    i.skip_atoi         kservice.o
    0x08005eca   0x08005eca   0x00000020   Code   RO         5100    i.str_common        msh.o
    0x08005eea   0x08005eea   0x00000002   PAD
    0x08005eec   0x08005eec   0x00000074   Code   RO          267    i.tim_tick_init     delay.o
    0x08005f60   0x08005f60   0x0000000a   Code   RO          208    i.uart_init         board.o
    0x08005f6a   0x08005f6a   0x00000002   PAD
    0x08005f6c   0x08005f6c   0x000000e8   Code   RO         4956    i.usage_fault_track  cpuport.o
    0x08006054   0x08006054   0x0000000a   Code   RO         5019    i.version           cmd.o
    0x0800605e   0x0800605e   0x00000122   Data   RO         4282    .constdata          kservice.o
    0x08006180   0x08006180   0x00000038   Data   RO         5274    .constdata          m_ws.l(log.o)
    0x080061b8   0x080061b8   0x00000081   Data   RO         5288    .constdata          mc_w.l(ctype_o.o)
    0x08006239   0x08006239   0x00000003   PAD
    0x0800623c   0x0800623c   0x00000004   Data   RO         5289    .constdata          mc_w.l(ctype_o.o)
    0x08006240   0x08006240   0x00000008   Data   RO         5385    .constdata          m_ws.l(qnan.o)
    0x08006248   0x08006248   0x00000058   Data   RO         4283    .conststring        kservice.o
    0x080062a0   0x080062a0   0x00000044   Data   RO         5020    .conststring        cmd.o
    0x080062e4   0x080062e4   0x00000023   Data   RO           57    .rodata.name        app.o
    0x08006307   0x08006307   0x000000dc   Data   RO         5021    .rodata.name        cmd.o
    0x080063e3   0x080063e3   0x00000064   Data   RO         5101    .rodata.name        msh.o
    0x08006447   0x08006447   0x00000001   PAD
    0x08006448   0x08006448   0x00000004   Data   RO         3953    .rti_fn.0           components.o
    0x0800644c   0x0800644c   0x00000004   Data   RO         3954    .rti_fn.0.end       components.o
    0x08006450   0x08006450   0x00000004   Data   RO          210    .rti_fn.1           board.o
    0x08006454   0x08006454   0x00000004   Data   RO         3955    .rti_fn.1.end       components.o
    0x08006458   0x08006458   0x00000004   Data   RO         5204    .rti_fn.6           shell.o
    0x0800645c   0x0800645c   0x00000004   Data   RO         3956    .rti_fn.6.end       components.o
    0x08006460   0x08006460   0x0000000c   Data   RO           58    FSymTab             app.o
    0x0800646c   0x0800646c   0x00000054   Data   RO         5022    FSymTab             cmd.o
    0x080064c0   0x080064c0   0x00000024   Data   RO         5102    FSymTab             msh.o
    0x080064e4   0x080064e4   0x00000020   Data   RO         5430    Region$$Table       anon$$obj.o


    Execution Region RW_IRAM1 (Exec base: 0x20000000, Load base: 0x08006504, Size: 0x00004990, Max: 0x00005000, ABSOLUTE, COMPRESSED[0x00000094])

    Exec Addr    Load Addr    Size         Type   Attr      Idx    E Section Name        Object

    0x20000000   COMPRESSED   0x00000008   Data   RW           56    .data               app.o
    0x20000008   COMPRESSED   0x0000000c   Data   RW          268    .data               delay.o
    0x20000014   COMPRESSED   0x00000008   Data   RW          326    .data               usart.o
    0x2000001c   COMPRESSED   0x00000024   Data   RW          393    .data               soft_i2c.o
    0x20000040   COMPRESSED   0x0000000f   Data   RW          533    .data               bq769.o
    0x2000004f   COMPRESSED   0x00000001   PAD
    0x20000050   COMPRESSED   0x0000000d   Data   RW          766    .data               bms_monitor.o
    0x2000005d   COMPRESSED   0x00000014   Data   RW         2422    .data               stm32f10x_rcc.o
    0x20000071   COMPRESSED   0x00000003   PAD
    0x20000074   COMPRESSED   0x00000004   Data   RW         3910    .data               clock.o
    0x20000078   COMPRESSED   0x00000008   Data   RW         4030    .data               idle.o
    0x20000080   COMPRESSED   0x00000001   Data   RW         4218    .data               irq.o
    0x20000081   COMPRESSED   0x00000003   PAD
    0x20000084   COMPRESSED   0x00000038   Data   RW         4284    .data               kservice.o
    0x200000bc   COMPRESSED   0x00000050   Data   RW         4549    .data               object.o
    0x2000010c   COMPRESSED   0x0000000d   Data   RW         4628    .data               scheduler.o
    0x20000119   COMPRESSED   0x00000003   PAD
    0x2000011c   COMPRESSED   0x00000018   Data   RW         4841    .data               timer.o
    0x20000134   COMPRESSED   0x00000010   Data   RW         4957    .data               cpuport.o
    0x20000144   COMPRESSED   0x00000010   Data   RW         5203    .data               shell.o
    0x20000154   COMPRESSED   0x00000004   Data   RW         5409    .data               mc_w.l(errno.o)
    0x20000158        -       0x00003c00   Zero   RW          209    .bss                board.o
    0x20003d58        -       0x00000080   Zero   RW          325    .bss                usart.o
    0x20003dd8        -       0x00000078   Zero   RW          532    .bss                bq769.o
    0x20003e50        -       0x0000004c   Zero   RW          765    .bss                bms_monitor.o
    0x20003e9c        -       0x00000178   Zero   RW         4029    .bss                idle.o
    0x20004014        -       0x00000100   Zero   RW         4281    .bss                kservice.o
    0x20004114        -       0x00000100   Zero   RW         4627    .bss                scheduler.o
    0x20004214        -       0x00000278   Zero   RW         4840    .bss                timer.o
    0x2000448c        -       0x00000101   Zero   RW         5202    .bss                shell.o
    0x2000458d   COMPRESSED   0x00000003   PAD
    0x20004590        -       0x00000400   Zero   RW         3803    STACK               startup_stm32f10x_md.o


==============================================================================

Image component sizes


      Code (inc. data)   RO Data    RW Data    ZI Data      Debug   Object Name

       124          4         47          8          0     263493   app.o
       624        116          0         13         76       3232   bms_monitor.o
       240         30          4          0      15360       4236   board.o
      2658        272          0         15        120      21210   bq769.o
       148         12          0          4          0       2180   clock.o
      2208        832        372          0          0      13933   cmd.o
       186         30         16          0          0       5684   components.o
       252         28          0          0          0        780   context_rvds.o
         0          0          0          0          0         32   core_cm3.o
      1440        724          0         16          0       5430   cpuport.o
       188         18          0         12          0       1842   delay.o
       262         30          0          8        376       6294   idle.o
       460          0          0          0          0       9129   ipc.o
        64         12          0          1          0       1750   irq.o
      2244        208        378         56        256      16095   kservice.o
        16          0          0          0          0      12477   main.o
       676         68          0          0          0       4590   mem.o
       132         22          0          0          0       1575   misc.o
       926        198        136          0          0       8656   msh.o
       326          4          0         80          0       8536   object.o
       756         84          0         13        256       8980   scheduler.o
      1316        146          4         16        257       6850   shell.o
      1316         62          0         36          0      14658   soft_i2c.o
        36          8        236          0       1024        804   startup_stm32f10x_md.o
        52         12          0          0          0       1080   stm32f10x_exti.o
       310          0          0          0          0       3691   stm32f10x_gpio.o
        16          0          0          0          0       2193   stm32f10x_it.o
       276         32          0         20          0       4426   stm32f10x_rcc.o
       252         42          0          0          0       4018   stm32f10x_tim.o
       442          6          0          0          0       6077   stm32f10x_usart.o
       328         28          0          0          0       2041   system_stm32f10x.o
       658         14          0          0          0      10787   thread.o
      1290         74          0         24        632      13866   timer.o
       384         46          0          8        128       2856   usart.o

    ----------------------------------------------------------------------
     20646       3162       1226        340      18488     473481   Object Totals
         0          0         32          0          0          0   (incl. Generated)
        40          0          1         10          3          0   (incl. Padding)

    ----------------------------------------------------------------------

      Code (inc. data)   RO Data    RW Data    ZI Data      Debug   Library Member Name

        34          4          0          0          0        204   dunder.o
       860         52         56          0          0        256   log.o
       170          0          0          0          0         96   poly.o
         0          0          8          0          0          0   qnan.o
        86          0          0          0          0          0   __dczerorl2.o
        28          0          0          0          0         68   _chval.o
       158          0          0          0          0         92   _strtoul.o
        26          0          0          0          0         80   atoi.o
         8          4        133          0          0         68   ctype_o.o
         0          0          0          0          0          0   entry.o
         0          0          0          0          0          0   entry10a.o
         0          0          0          0          0          0   entry11a.o
         8          4          0          0          0          0   entry2.o
         4          0          0          0          0          0   entry5.o
         0          0          0          0          0          0   entry7b.o
         0          0          0          0          0          0   entry8b.o
         8          4          0          0          0          0   entry9a.o
        20         10          0          4          0        136   errno.o
        30          0          0          0          0          0   handlers.o
        36          8          0          0          0         68   init.o
         0          0          0          0          0          0   iusefp.o
        30          0          0          0          0         68   llshl.o
        36          0          0          0          0         68   llsshr.o
        32          0          0          0          0         68   llushr.o
        36          0          0          0          0         68   memcpya.o
        36          0          0          0          0        108   memseta.o
        24          0          0          0          0         68   strcat.o
        28          0          0          0          0         76   strcmp.o
        18          0          0          0          0         68   strcpy.o
        14          0          0          0          0         68   strlen.o
        30          0          0          0          0         80   strncmp.o
        24          0          0          0          0         76   strncpy.o
       112          0          0          0          0         88   strtol.o
        48          0          0          0          0         68   cdcmple.o
        20          0          0          0          0         68   cfcmple.o
        20          0          0          0          0         68   cfrcmple.o
        56          0          0          0          0         88   d2f.o
       334          0          0          0          0        148   dadd.o
       222          0          0          0          0        100   ddiv.o
       186          0          0          0          0        176   depilogue.o
        34          0          0          0          0         76   dflti.o
        26          0          0          0          0         76   dfltui.o
       228          0          0          0          0         96   dmul.o
        46          0          0          0          0         80   dscalb.o
        38          0          0          0          0         68   f2d.o
       176          0          0          0          0        140   fadd.o
       124          0          0          0          0         88   fdiv.o
       110          0          0          0          0        168   fepilogue.o
        50          0          0          0          0         68   ffixi.o
        40          0          0          0          0         68   ffixui.o
        18          0          0          0          0         68   fflti.o
        10          0          0          0          0         68   ffltui.o
       100          0          0          0          0         76   fmul.o

    ----------------------------------------------------------------------
      3788         86        200          4          0       3828   Library Totals
         6          0          3          0          0          0   (incl. Padding)

    ----------------------------------------------------------------------

      Code (inc. data)   RO Data    RW Data    ZI Data      Debug   Library Name

      1064         56         64          0          0        556   m_ws.l
       832         30        133          4          0       1416   mc_w.l
      1886          0          0          0          0       1856   mf_w.l

    ----------------------------------------------------------------------
      3788         86        200          4          0       3828   Library Totals

    ----------------------------------------------------------------------

==============================================================================


      Code (inc. data)   RO Data    RW Data    ZI Data      Debug   

     24434       3248       1426        344      18488     463657   Grand Totals
     24434       3248       1426        148      18488     463657   ELF Image Totals (compressed)
     24434       3248       1426        148          0          0   ROM Totals

==============================================================================

    Total RO  Size (Code + RO Data)                25860 (  25.25kB)
    Total RW  Size (RW Data + ZI Data)             18832 (  18.39kB)
    Total ROM Size (Code + RO Data + RW Data)      26008 (  25.40kB)

==============================================================================

